(lp0
(S'/home/perseus/Sem-9/Thesis/Data/CodeForces/11/Correct/A19.c'
p1
S'/home/perseus/Sem-9/Thesis/Data/CodeForces/11/Correct/A1.c'
p2
F0.0
tp3
a(g1
S'/home/perseus/Sem-9/Thesis/Data/CodeForces/11/Correct/A3.c'
p4
I0
tp5
a(g1
S'/home/perseus/Sem-9/Thesis/Data/CodeForces/11/Correct/A37.c'
p6
F0.0
tp7
a(g1
S'/home/perseus/Sem-9/Thesis/Data/CodeForces/11/Correct/A40.c'
p8
F0.0
tp9
a(g1
S'/home/perseus/Sem-9/Thesis/Data/CodeForces/11/Correct/A6.c'
p10
F0.0
tp11
a(g1
S'/home/perseus/Sem-9/Thesis/Data/CodeForces/11/Correct/A26.c'
p12
F0.0
tp13
a(g1
S'/home/perseus/Sem-9/Thesis/Data/CodeForces/11/Correct/A13.c'
p14
F0.0
tp15
a(g1
S'/home/perseus/Sem-9/Thesis/Data/CodeForces/11/Correct/A17.c'
p16
F0.0
tp17
a(g1
S'/home/perseus/Sem-9/Thesis/Data/CodeForces/11/Correct/A36.c'
p18
F0.0
tp19
a(g1
S'/home/perseus/Sem-9/Thesis/Data/CodeForces/11/Correct/A28.c'
p20
F0.0
tp21
a(g1
S'/home/perseus/Sem-9/Thesis/Data/CodeForces/11/Correct/A24.c'
p22
I0
tp23
a(g1
S'/home/perseus/Sem-9/Thesis/Data/CodeForces/11/Correct/A4.c'
p24
I0
tp25
a(g1
S'/home/perseus/Sem-9/Thesis/Data/CodeForces/11/Correct/A29.c'
p26
F0.0
tp27
a(g1
S'/home/perseus/Sem-9/Thesis/Data/CodeForces/11/Correct/A5.c'
p28
F0.0
tp29
a(g1
S'/home/perseus/Sem-9/Thesis/Data/CodeForces/11/Correct/A22.c'
p30
F0.0
tp31
a(g1
S'/home/perseus/Sem-9/Thesis/Data/CodeForces/11/Correct/A14.c'
p32
F0.0
tp33
a(g1
S'/home/perseus/Sem-9/Thesis/Data/CodeForces/11/Correct/A34.c'
p34
F0.0
tp35
a(g1
S'/home/perseus/Sem-9/Thesis/Data/CodeForces/11/Correct/A9.c'
p36
F0.7407407407407407
tp37
a(g1
S'/home/perseus/Sem-9/Thesis/Data/CodeForces/11/Correct/A2.c'
p38
F0.0
tp39
a(g1
S'/home/perseus/Sem-9/Thesis/Data/CodeForces/11/Correct/A11.c'
p40
I0
tp41
a(g1
S'/home/perseus/Sem-9/Thesis/Data/CodeForces/11/Correct/A25.c'
p42
F0.0
tp43
a(g1
S'/home/perseus/Sem-9/Thesis/Data/CodeForces/11/Correct/A39.c'
p44
F0.0
tp45
a(g1
S'/home/perseus/Sem-9/Thesis/Data/CodeForces/11/Correct/A10.c'
p46
F0.0
tp47
a(g1
S'/home/perseus/Sem-9/Thesis/Data/CodeForces/11/Correct/A31.c'
p48
F0.0
tp49
a(g1
S'/home/perseus/Sem-9/Thesis/Data/CodeForces/11/Correct/A7.c'
p50
F0.0
tp51
a(g1
S'/home/perseus/Sem-9/Thesis/Data/CodeForces/11/Correct/A12.c'
p52
F0.0
tp53
a(g1
S'/home/perseus/Sem-9/Thesis/Data/CodeForces/11/Correct/A41.c'
p54
F0.0
tp55
a(g1
S'/home/perseus/Sem-9/Thesis/Data/CodeForces/11/Correct/A43.c'
p56
F0.0
tp57
a(g1
S'/home/perseus/Sem-9/Thesis/Data/CodeForces/11/Correct/A38.c'
p58
F0.75
tp59
a(g1
S'/home/perseus/Sem-9/Thesis/Data/CodeForces/11/Correct/A32.c'
p60
F0.0
tp61
a(g1
S'/home/perseus/Sem-9/Thesis/Data/CodeForces/11/Correct/A18.c'
p62
F0.0
tp63
a(g1
S'/home/perseus/Sem-9/Thesis/Data/CodeForces/11/Correct/A23.c'
p64
F0.0
tp65
a(g1
S'/home/perseus/Sem-9/Thesis/Data/CodeForces/11/Correct/A27.c'
p66
I0
tp67
a(g1
S'/home/perseus/Sem-9/Thesis/Data/CodeForces/11/Correct/A33.c'
p68
F0.0
tp69
a(g1
S'/home/perseus/Sem-9/Thesis/Data/CodeForces/11/Correct/A8.c'
p70
F0.0
tp71
a(g1
S'/home/perseus/Sem-9/Thesis/Data/CodeForces/11/Correct/A21.c'
p72
F0.0
tp73
a(g1
S'/home/perseus/Sem-9/Thesis/Data/CodeForces/11/Correct/A20.c'
p74
F0.0
tp75
a(g1
S'/home/perseus/Sem-9/Thesis/Data/CodeForces/11/Correct/A15.c'
p76
F0.0
tp77
a(g1
S'/home/perseus/Sem-9/Thesis/Data/CodeForces/11/Correct/A42.c'
p78
F0.0
tp79
a(g1
S'/home/perseus/Sem-9/Thesis/Data/CodeForces/11/Correct/A30.c'
p80
F0.0
tp81
a(g2
g4
F0.0
tp82
a(g2
g6
F0.0
tp83
a(g2
g8
F0.0
tp84
a(g2
g10
I0
tp85
a(g2
g12
F0.0
tp86
a(g2
g14
F0.9411764705882353
tp87
a(g2
g16
F0.0
tp88
a(g2
g18
F0.0
tp89
a(g2
g20
F0.9411764705882353
tp90
a(g2
g22
I0
tp91
a(g2
g24
I0
tp92
a(g2
g26
F0.0
tp93
a(g2
g28
F0.0
tp94
a(g2
g30
F0.0
tp95
a(g2
g32
F0.0
tp96
a(g2
g34
F0.0
tp97
a(g2
g36
I0
tp98
a(g2
g38
F0.0
tp99
a(g2
g40
F0.0
tp100
a(g2
g42
F0.0
tp101
a(g2
g44
F0.0
tp102
a(g2
g46
F0.0
tp103
a(g2
g48
F0.0
tp104
a(g2
g50
F0.8947368421052632
tp105
a(g2
g52
F0.0
tp106
a(g2
g54
F0.0
tp107
a(g2
g56
F0.0
tp108
a(g2
g58
F0.8823529411764706
tp109
a(g2
g60
F0.0
tp110
a(g2
g62
F0.9411764705882353
tp111
a(g2
g64
F0.0
tp112
a(g2
g66
F0.0
tp113
a(g2
g68
F0.9411764705882353
tp114
a(g2
g70
F0.0
tp115
a(g2
g72
F0.0
tp116
a(g2
g74
F0.0
tp117
a(g2
g76
F0.0
tp118
a(g2
g78
F0.0
tp119
a(g2
g80
F0.0
tp120
a(g4
g6
F0.0
tp121
a(g4
g8
F0.0
tp122
a(g4
g10
I0
tp123
a(g4
g12
F0.0
tp124
a(g4
g14
F0.0
tp125
a(g4
g16
F0.8666666666666667
tp126
a(g4
g18
I0
tp127
a(g4
g20
F0.0
tp128
a(g4
g22
I0
tp129
a(g4
g24
I0
tp130
a(g4
g26
F0.8125
tp131
a(g4
g28
F0.0
tp132
a(g4
g30
I0
tp133
a(g4
g32
F0.7647058823529411
tp134
a(g4
g34
F0.0
tp135
a(g4
g36
I0
tp136
a(g4
g38
I0
tp137
a(g4
g40
F0.0
tp138
a(g4
g42
I0
tp139
a(g4
g44
F0.0
tp140
a(g4
g46
I0
tp141
a(g4
g48
F0.0
tp142
a(g4
g50
I0
tp143
a(g4
g52
F0.8666666666666667
tp144
a(g4
g54
F0.0
tp145
a(g4
g56
F0.0
tp146
a(g4
g58
F0.0
tp147
a(g4
g60
F0.0
tp148
a(g4
g62
F0.0
tp149
a(g4
g64
I0
tp150
a(g4
g66
F0.0
tp151
a(g4
g68
F0.0
tp152
a(g4
g70
F0.0
tp153
a(g4
g72
F0.8125
tp154
a(g4
g74
F0.8666666666666667
tp155
a(g4
g76
F0.0
tp156
a(g4
g78
I0
tp157
a(g4
g80
F0.8666666666666667
tp158
a(g6
g8
F0.0
tp159
a(g6
g10
I0
tp160
a(g6
g12
F0.8823529411764706
tp161
a(g6
g14
F0.0
tp162
a(g6
g16
F0.0
tp163
a(g6
g18
F0.0
tp164
a(g6
g20
F0.0
tp165
a(g6
g22
I0
tp166
a(g6
g24
I0
tp167
a(g6
g26
F0.0
tp168
a(g6
g28
F0.0
tp169
a(g6
g30
F0.7894736842105263
tp170
a(g6
g32
F0.0
tp171
a(g6
g34
F0.8823529411764706
tp172
a(g6
g36
I0
tp173
a(g6
g38
F0.7142857142857143
tp174
a(g6
g40
F0.0
tp175
a(g6
g42
F0.0
tp176
a(g6
g44
F0.0
tp177
a(g6
g46
F0.0
tp178
a(g6
g48
F0.8823529411764706
tp179
a(g6
g50
F0.0
tp180
a(g6
g52
F0.0
tp181
a(g6
g54
F0.8823529411764706
tp182
a(g6
g56
F0.0
tp183
a(g6
g58
F0.0
tp184
a(g6
g60
F0.0
tp185
a(g6
g62
F0.0
tp186
a(g6
g64
F0.75
tp187
a(g6
g66
F0.0
tp188
a(g6
g68
F0.0
tp189
a(g6
g70
F0.8333333333333334
tp190
a(g6
g72
F0.0
tp191
a(g6
g74
F0.0
tp192
a(g6
g76
F0.0
tp193
a(g6
g78
F0.0
tp194
a(g6
g80
F0.0
tp195
a(g8
g10
I0
tp196
a(g8
g12
F0.0
tp197
a(g8
g14
F0.0
tp198
a(g8
g16
F0.0
tp199
a(g8
g18
F0.0
tp200
a(g8
g20
F0.0
tp201
a(g8
g22
I0
tp202
a(g8
g24
I0
tp203
a(g8
g26
F0.0
tp204
a(g8
g28
F0.0
tp205
a(g8
g30
F0.0
tp206
a(g8
g32
F0.0
tp207
a(g8
g34
F0.0
tp208
a(g8
g36
I0
tp209
a(g8
g38
F0.0
tp210
a(g8
g40
F0.0
tp211
a(g8
g42
F0.0
tp212
a(g8
g44
F0.9375
tp213
a(g8
g46
F0.0
tp214
a(g8
g48
F0.0
tp215
a(g8
g50
F0.0
tp216
a(g8
g52
F0.0
tp217
a(g8
g54
F0.0
tp218
a(g8
g56
F0.0
tp219
a(g8
g58
F0.9375
tp220
a(g8
g60
F0.0
tp221
a(g8
g62
F0.0
tp222
a(g8
g64
F0.0
tp223
a(g8
g66
F0.0
tp224
a(g8
g68
F0.0
tp225
a(g8
g70
F0.0
tp226
a(g8
g72
F0.0
tp227
a(g8
g74
F0.0
tp228
a(g8
g76
F0.0
tp229
a(g8
g78
F0.0
tp230
a(g8
g80
F0.0
tp231
a(g10
g12
I0
tp232
a(g10
g14
I0
tp233
a(g10
g16
I0
tp234
a(g10
g18
F0.0
tp235
a(g10
g20
I0
tp236
a(g10
g22
I0
tp237
a(g10
g24
I0
tp238
a(g10
g26
I0
tp239
a(g10
g28
I0
tp240
a(g10
g30
F0.0
tp241
a(g10
g32
I0
tp242
a(g10
g34
I0
tp243
a(g10
g36
F0.0
tp244
a(g10
g38
F0.0
tp245
a(g10
g40
I0
tp246
a(g10
g42
F0.0
tp247
a(g10
g44
I0
tp248
a(g10
g46
F0.0
tp249
a(g10
g48
I0
tp250
a(g10
g50
F0.0
tp251
a(g10
g52
I0
tp252
a(g10
g54
I0
tp253
a(g10
g56
I0
tp254
a(g10
g58
I0
tp255
a(g10
g60
I0
tp256
a(g10
g62
I0
tp257
a(g10
g64
F0.0
tp258
a(g10
g66
I0
tp259
a(g10
g68
I0
tp260
a(g10
g70
F0.0
tp261
a(g10
g72
I0
tp262
a(g10
g74
I0
tp263
a(g10
g76
F0.72
tp264
a(g10
g78
F0.0
tp265
a(g10
g80
I0
tp266
a(g12
g14
F0.0
tp267
a(g12
g16
F0.0
tp268
a(g12
g18
F0.0
tp269
a(g12
g20
F0.0
tp270
a(g12
g22
I0
tp271
a(g12
g24
I0
tp272
a(g12
g26
F0.0
tp273
a(g12
g28
F0.9411764705882353
tp274
a(g12
g30
F0.8947368421052632
tp275
a(g12
g32
F0.0
tp276
a(g12
g34
F1.0
tp277
a(g12
g36
I0
tp278
a(g12
g38
F0.8095238095238095
tp279
a(g12
g40
F0.0
tp280
a(g12
g42
F0.0
tp281
a(g12
g44
F0.0
tp282
a(g12
g46
F0.0
tp283
a(g12
g48
F1.0
tp284
a(g12
g50
F0.0
tp285
a(g12
g52
F0.0
tp286
a(g12
g54
F1.0
tp287
a(g12
g56
F0.0
tp288
a(g12
g58
F0.8823529411764706
tp289
a(g12
g60
F0.9411764705882353
tp290
a(g12
g62
F0.0
tp291
a(g12
g64
F0.85
tp292
a(g12
g66
F0.0
tp293
a(g12
g68
F0.0
tp294
a(g12
g70
F0.9444444444444444
tp295
a(g12
g72
F0.0
tp296
a(g12
g74
F0.0
tp297
a(g12
g76
F0.0
tp298
a(g12
g78
F0.0
tp299
a(g12
g80
F0.0
tp300
a(g14
g16
F0.0
tp301
a(g14
g18
F0.0
tp302
a(g14
g20
F1.0
tp303
a(g14
g22
I0
tp304
a(g14
g24
I0
tp305
a(g14
g26
F0.0
tp306
a(g14
g28
F0.0
tp307
a(g14
g30
F0.0
tp308
a(g14
g32
F0.0
tp309
a(g14
g34
F0.0
tp310
a(g14
g36
I0
tp311
a(g14
g38
F0.0
tp312
a(g14
g40
F0.0
tp313
a(g14
g42
F0.0
tp314
a(g14
g44
F0.0
tp315
a(g14
g46
F0.8421052631578947
tp316
a(g14
g48
F0.0
tp317
a(g14
g50
F0.8421052631578947
tp318
a(g14
g52
F0.0
tp319
a(g14
g54
F0.0
tp320
a(g14
g56
F0.0
tp321
a(g14
g58
F0.0
tp322
a(g14
g60
F0.0
tp323
a(g14
g62
F1.0
tp324
a(g14
g64
F0.0
tp325
a(g14
g66
F0.0
tp326
a(g14
g68
F1.0
tp327
a(g14
g70
F0.0
tp328
a(g14
g72
F0.0
tp329
a(g14
g74
F0.0
tp330
a(g14
g76
F0.0
tp331
a(g14
g78
F0.8
tp332
a(g14
g80
F0.0
tp333
a(g16
g18
F0.0
tp334
a(g16
g20
F0.0
tp335
a(g16
g22
I0
tp336
a(g16
g24
I0
tp337
a(g16
g26
F0.0
tp338
a(g16
g28
F0.0
tp339
a(g16
g30
F0.0
tp340
a(g16
g32
F0.0
tp341
a(g16
g34
F0.0
tp342
a(g16
g36
I0
tp343
a(g16
g38
F0.0
tp344
a(g16
g40
F0.8666666666666667
tp345
a(g16
g42
F0.75
tp346
a(g16
g44
F0.0
tp347
a(g16
g46
F0.7894736842105263
tp348
a(g16
g48
F0.0
tp349
a(g16
g50
F0.0
tp350
a(g16
g52
F1.0
tp351
a(g16
g54
F0.0
tp352
a(g16
g56
F0.0
tp353
a(g16
g58
F0.0
tp354
a(g16
g60
F0.0
tp355
a(g16
g62
F0.0
tp356
a(g16
g64
F0.0
tp357
a(g16
g66
F0.8666666666666667
tp358
a(g16
g68
F0.0
tp359
a(g16
g70
F0.0
tp360
a(g16
g72
F0.0
tp361
a(g16
g74
F0.0
tp362
a(g16
g76
F0.0
tp363
a(g16
g78
F0.0
tp364
a(g16
g80
F1.0
tp365
a(g18
g20
F0.0
tp366
a(g18
g22
I0
tp367
a(g18
g24
I0
tp368
a(g18
g26
F0.0
tp369
a(g18
g28
F0.8421052631578947
tp370
a(g18
g30
F0.0
tp371
a(g18
g32
F0.0
tp372
a(g18
g34
F0.0
tp373
a(g18
g36
F0.7037037037037037
tp374
a(g18
g38
F0.0
tp375
a(g18
g40
I0
tp376
a(g18
g42
F0.0
tp377
a(g18
g44
F0.0
tp378
a(g18
g46
F0.0
tp379
a(g18
g48
F0.0
tp380
a(g18
g50
F0.0
tp381
a(g18
g52
F0.0
tp382
a(g18
g54
F0.0
tp383
a(g18
g56
F0.8947368421052632
tp384
a(g18
g58
F0.7894736842105263
tp385
a(g18
g60
F0.8421052631578947
tp386
a(g18
g62
F0.0
tp387
a(g18
g64
F0.0
tp388
a(g18
g66
I0
tp389
a(g18
g68
F0.0
tp390
a(g18
g70
F0.0
tp391
a(g18
g72
F0.0
tp392
a(g18
g74
F0.0
tp393
a(g18
g76
F0.0
tp394
a(g18
g78
F0.0
tp395
a(g18
g80
F0.0
tp396
a(g20
g22
I0
tp397
a(g20
g24
I0
tp398
a(g20
g26
F0.0
tp399
a(g20
g28
F0.0
tp400
a(g20
g30
F0.0
tp401
a(g20
g32
F0.0
tp402
a(g20
g34
F0.0
tp403
a(g20
g36
I0
tp404
a(g20
g38
F0.0
tp405
a(g20
g40
F0.0
tp406
a(g20
g42
F0.0
tp407
a(g20
g44
F0.0
tp408
a(g20
g46
F0.8421052631578947
tp409
a(g20
g48
F0.0
tp410
a(g20
g50
F0.8421052631578947
tp411
a(g20
g52
F0.0
tp412
a(g20
g54
F0.0
tp413
a(g20
g56
F0.0
tp414
a(g20
g58
F0.0
tp415
a(g20
g60
F0.0
tp416
a(g20
g62
F1.0
tp417
a(g20
g64
F0.0
tp418
a(g20
g66
F0.0
tp419
a(g20
g68
F1.0
tp420
a(g20
g70
F0.0
tp421
a(g20
g72
F0.0
tp422
a(g20
g74
F0.0
tp423
a(g20
g76
F0.0
tp424
a(g20
g78
F0.8
tp425
a(g20
g80
F0.0
tp426
a(g22
g24
I0
tp427
a(g22
g26
I0
tp428
a(g22
g28
I0
tp429
a(g22
g30
I0
tp430
a(g22
g32
I0
tp431
a(g22
g34
I0
tp432
a(g22
g36
I0
tp433
a(g22
g38
I0
tp434
a(g22
g40
I0
tp435
a(g22
g42
I0
tp436
a(g22
g44
I0
tp437
a(g22
g46
I0
tp438
a(g22
g48
I0
tp439
a(g22
g50
I0
tp440
a(g22
g52
I0
tp441
a(g22
g54
I0
tp442
a(g22
g56
I0
tp443
a(g22
g58
I0
tp444
a(g22
g60
I0
tp445
a(g22
g62
I0
tp446
a(g22
g64
I0
tp447
a(g22
g66
I0
tp448
a(g22
g68
I0
tp449
a(g22
g70
I0
tp450
a(g22
g72
I0
tp451
a(g22
g74
I0
tp452
a(g22
g76
I0
tp453
a(g22
g78
I0
tp454
a(g22
g80
I0
tp455
a(g24
g26
I0
tp456
a(g24
g28
I0
tp457
a(g24
g30
I0
tp458
a(g24
g32
I0
tp459
a(g24
g34
I0
tp460
a(g24
g36
I0
tp461
a(g24
g38
I0
tp462
a(g24
g40
I0
tp463
a(g24
g42
I0
tp464
a(g24
g44
I0
tp465
a(g24
g46
I0
tp466
a(g24
g48
I0
tp467
a(g24
g50
I0
tp468
a(g24
g52
I0
tp469
a(g24
g54
I0
tp470
a(g24
g56
I0
tp471
a(g24
g58
I0
tp472
a(g24
g60
I0
tp473
a(g24
g62
I0
tp474
a(g24
g64
I0
tp475
a(g24
g66
I0
tp476
a(g24
g68
I0
tp477
a(g24
g70
I0
tp478
a(g24
g72
I0
tp479
a(g24
g74
I0
tp480
a(g24
g76
I0
tp481
a(g24
g78
I0
tp482
a(g24
g80
I0
tp483
a(g26
g28
F0.0
tp484
a(g26
g30
F0.0
tp485
a(g26
g32
F0.0
tp486
a(g26
g34
F0.0
tp487
a(g26
g36
I0
tp488
a(g26
g38
F0.0
tp489
a(g26
g40
F0.0
tp490
a(g26
g42
F0.0
tp491
a(g26
g44
F0.0
tp492
a(g26
g46
F0.0
tp493
a(g26
g48
F0.0
tp494
a(g26
g50
F0.0
tp495
a(g26
g52
F0.0
tp496
a(g26
g54
F0.0
tp497
a(g26
g56
F0.0
tp498
a(g26
g58
F0.9375
tp499
a(g26
g60
F0.0
tp500
a(g26
g62
F0.0
tp501
a(g26
g64
F0.0
tp502
a(g26
g66
F0.0
tp503
a(g26
g68
F0.0
tp504
a(g26
g70
F0.0
tp505
a(g26
g72
F0.0
tp506
a(g26
g74
F0.9375
tp507
a(g26
g76
F0.0
tp508
a(g26
g78
F0.0
tp509
a(g26
g80
F0.0
tp510
a(g28
g30
F0.8421052631578947
tp511
a(g28
g32
F0.0
tp512
a(g28
g34
F0.9411764705882353
tp513
a(g28
g36
I0
tp514
a(g28
g38
F0.7619047619047619
tp515
a(g28
g40
F0.0
tp516
a(g28
g42
F0.0
tp517
a(g28
g44
F0.0
tp518
a(g28
g46
F0.0
tp519
a(g28
g48
F0.9411764705882353
tp520
a(g28
g50
F0.0
tp521
a(g28
g52
F0.0
tp522
a(g28
g54
F0.9411764705882353
tp523
a(g28
g56
F0.9411764705882353
tp524
a(g28
g58
F0.0
tp525
a(g28
g60
F1.0
tp526
a(g28
g62
F0.0
tp527
a(g28
g64
F0.8
tp528
a(g28
g66
F0.0
tp529
a(g28
g68
F0.0
tp530
a(g28
g70
F0.8888888888888888
tp531
a(g28
g72
F0.0
tp532
a(g28
g74
F0.0
tp533
a(g28
g76
F0.8888888888888888
tp534
a(g28
g78
F0.8
tp535
a(g28
g80
F0.0
tp536
a(g30
g32
F0.0
tp537
a(g30
g34
F0.8947368421052632
tp538
a(g30
g36
F0.7037037037037037
tp539
a(g30
g38
F0.9047619047619048
tp540
a(g30
g40
I0
tp541
a(g30
g42
F0.0
tp542
a(g30
g44
F0.0
tp543
a(g30
g46
F0.0
tp544
a(g30
g48
F0.8947368421052632
tp545
a(g30
g50
F0.0
tp546
a(g30
g52
F0.0
tp547
a(g30
g54
F0.8947368421052632
tp548
a(g30
g56
F0.0
tp549
a(g30
g58
F0.7894736842105263
tp550
a(g30
g60
F0.8421052631578947
tp551
a(g30
g62
F0.0
tp552
a(g30
g64
F0.0
tp553
a(g30
g66
I0
tp554
a(g30
g68
F0.0
tp555
a(g30
g70
F0.0
tp556
a(g30
g72
F0.0
tp557
a(g30
g74
F0.0
tp558
a(g30
g76
F0.0
tp559
a(g30
g78
F0.0
tp560
a(g30
g80
F0.0
tp561
a(g32
g34
F0.0
tp562
a(g32
g36
I0
tp563
a(g32
g38
F0.0
tp564
a(g32
g40
F0.0
tp565
a(g32
g42
F0.0
tp566
a(g32
g44
F0.0
tp567
a(g32
g46
F0.0
tp568
a(g32
g48
F0.0
tp569
a(g32
g50
F0.0
tp570
a(g32
g52
F0.0
tp571
a(g32
g54
F0.0
tp572
a(g32
g56
F0.0
tp573
a(g32
g58
F0.0
tp574
a(g32
g60
F0.0
tp575
a(g32
g62
F0.0
tp576
a(g32
g64
F0.0
tp577
a(g32
g66
F0.0
tp578
a(g32
g68
F0.0
tp579
a(g32
g70
F0.0
tp580
a(g32
g72
F0.0
tp581
a(g32
g74
F0.8823529411764706
tp582
a(g32
g76
F0.0
tp583
a(g32
g78
F0.0
tp584
a(g32
g80
F0.0
tp585
a(g34
g36
I0
tp586
a(g34
g38
F0.8095238095238095
tp587
a(g34
g40
F0.0
tp588
a(g34
g42
F0.0
tp589
a(g34
g44
F0.0
tp590
a(g34
g46
F0.0
tp591
a(g34
g48
F1.0
tp592
a(g34
g50
F0.0
tp593
a(g34
g52
F0.0
tp594
a(g34
g54
F1.0
tp595
a(g34
g56
F0.0
tp596
a(g34
g58
F0.8823529411764706
tp597
a(g34
g60
F0.9411764705882353
tp598
a(g34
g62
F0.0
tp599
a(g34
g64
F0.85
tp600
a(g34
g66
F0.0
tp601
a(g34
g68
F0.0
tp602
a(g34
g70
F0.9444444444444444
tp603
a(g34
g72
F0.0
tp604
a(g34
g74
F0.0
tp605
a(g34
g76
F0.0
tp606
a(g34
g78
F0.0
tp607
a(g34
g80
F0.0
tp608
a(g36
g38
F0.7777777777777778
tp609
a(g36
g40
I0
tp610
a(g36
g42
F0.7407407407407407
tp611
a(g36
g44
I0
tp612
a(g36
g46
F0.7037037037037037
tp613
a(g36
g48
I0
tp614
a(g36
g50
F0.0
tp615
a(g36
g52
I0
tp616
a(g36
g54
I0
tp617
a(g36
g56
I0
tp618
a(g36
g58
I0
tp619
a(g36
g60
I0
tp620
a(g36
g62
I0
tp621
a(g36
g64
F0.7407407407407407
tp622
a(g36
g66
I0
tp623
a(g36
g68
I0
tp624
a(g36
g70
I0
tp625
a(g36
g72
I0
tp626
a(g36
g74
I0
tp627
a(g36
g76
I0
tp628
a(g36
g78
F0.7407407407407407
tp629
a(g36
g80
I0
tp630
a(g38
g40
I0
tp631
a(g38
g42
F0.0
tp632
a(g38
g44
F0.0
tp633
a(g38
g46
F0.0
tp634
a(g38
g48
F0.8095238095238095
tp635
a(g38
g50
F0.0
tp636
a(g38
g52
F0.0
tp637
a(g38
g54
F0.8095238095238095
tp638
a(g38
g56
F0.0
tp639
a(g38
g58
F0.7142857142857143
tp640
a(g38
g60
F0.7619047619047619
tp641
a(g38
g62
F0.0
tp642
a(g38
g64
F0.0
tp643
a(g38
g66
I0
tp644
a(g38
g68
F0.0
tp645
a(g38
g70
F0.0
tp646
a(g38
g72
F0.0
tp647
a(g38
g74
F0.0
tp648
a(g38
g76
F0.0
tp649
a(g38
g78
F0.0
tp650
a(g38
g80
F0.0
tp651
a(g40
g42
I0
tp652
a(g40
g44
F0.0
tp653
a(g40
g46
I0
tp654
a(g40
g48
F0.0
tp655
a(g40
g50
I0
tp656
a(g40
g52
F0.8666666666666667
tp657
a(g40
g54
F0.0
tp658
a(g40
g56
F0.0
tp659
a(g40
g58
F0.0
tp660
a(g40
g60
F0.0
tp661
a(g40
g62
F0.0
tp662
a(g40
g64
I0
tp663
a(g40
g66
F1.0
tp664
a(g40
g68
F0.0
tp665
a(g40
g70
F0.0
tp666
a(g40
g72
F0.0
tp667
a(g40
g74
F0.0
tp668
a(g40
g76
F0.0
tp669
a(g40
g78
I0
tp670
a(g40
g80
F0.8666666666666667
tp671
a(g42
g44
F0.0
tp672
a(g42
g46
F0.0
tp673
a(g42
g48
F0.0
tp674
a(g42
g50
F0.0
tp675
a(g42
g52
F0.75
tp676
a(g42
g54
F0.0
tp677
a(g42
g56
F0.0
tp678
a(g42
g58
F0.75
tp679
a(g42
g60
F0.0
tp680
a(g42
g62
F0.0
tp681
a(g42
g64
F0.0
tp682
a(g42
g66
I0
tp683
a(g42
g68
F0.0
tp684
a(g42
g70
F0.0
tp685
a(g42
g72
F0.8
tp686
a(g42
g74
F0.0
tp687
a(g42
g76
F0.0
tp688
a(g42
g78
F0.0
tp689
a(g42
g80
F0.75
tp690
a(g44
g46
F0.0
tp691
a(g44
g48
F0.0
tp692
a(g44
g50
F0.0
tp693
a(g44
g52
F0.0
tp694
a(g44
g54
F0.0
tp695
a(g44
g56
F0.0
tp696
a(g44
g58
F0.0
tp697
a(g44
g60
F0.0
tp698
a(g44
g62
F0.0
tp699
a(g44
g64
F0.0
tp700
a(g44
g66
F0.0
tp701
a(g44
g68
F0.0
tp702
a(g44
g70
F0.0
tp703
a(g44
g72
F0.0
tp704
a(g44
g74
F0.0
tp705
a(g44
g76
F0.0
tp706
a(g44
g78
F0.0
tp707
a(g44
g80
F0.0
tp708
a(g46
g48
F0.0
tp709
a(g46
g50
F0.0
tp710
a(g46
g52
F0.7894736842105263
tp711
a(g46
g54
F0.0
tp712
a(g46
g56
F0.0
tp713
a(g46
g58
F0.7894736842105263
tp714
a(g46
g60
F0.0
tp715
a(g46
g62
F0.8421052631578947
tp716
a(g46
g64
F0.0
tp717
a(g46
g66
I0
tp718
a(g46
g68
F0.8421052631578947
tp719
a(g46
g70
F0.0
tp720
a(g46
g72
F0.8421052631578947
tp721
a(g46
g74
F0.0
tp722
a(g46
g76
F0.0
tp723
a(g46
g78
F0.0
tp724
a(g46
g80
F0.7894736842105263
tp725
a(g48
g50
F0.0
tp726
a(g48
g52
F0.0
tp727
a(g48
g54
F1.0
tp728
a(g48
g56
F0.0
tp729
a(g48
g58
F0.8823529411764706
tp730
a(g48
g60
F0.9411764705882353
tp731
a(g48
g62
F0.0
tp732
a(g48
g64
F0.85
tp733
a(g48
g66
F0.0
tp734
a(g48
g68
F0.0
tp735
a(g48
g70
F0.9444444444444444
tp736
a(g48
g72
F0.0
tp737
a(g48
g74
F0.0
tp738
a(g48
g76
F0.0
tp739
a(g48
g78
F0.0
tp740
a(g48
g80
F0.0
tp741
a(g50
g52
F0.0
tp742
a(g50
g54
F0.0
tp743
a(g50
g56
F0.0
tp744
a(g50
g58
F0.7894736842105263
tp745
a(g50
g60
F0.0
tp746
a(g50
g62
F0.8421052631578947
tp747
a(g50
g64
F0.0
tp748
a(g50
g66
I0
tp749
a(g50
g68
F0.8421052631578947
tp750
a(g50
g70
F0.0
tp751
a(g50
g72
F0.0
tp752
a(g50
g74
F0.0
tp753
a(g50
g76
F0.0
tp754
a(g50
g78
F0.0
tp755
a(g50
g80
F0.0
tp756
a(g52
g54
F0.0
tp757
a(g52
g56
F0.0
tp758
a(g52
g58
F0.0
tp759
a(g52
g60
F0.0
tp760
a(g52
g62
F0.0
tp761
a(g52
g64
F0.0
tp762
a(g52
g66
F0.8666666666666667
tp763
a(g52
g68
F0.0
tp764
a(g52
g70
F0.0
tp765
a(g52
g72
F0.0
tp766
a(g52
g74
F0.0
tp767
a(g52
g76
F0.0
tp768
a(g52
g78
F0.0
tp769
a(g52
g80
F1.0
tp770
a(g54
g56
F0.0
tp771
a(g54
g58
F0.8823529411764706
tp772
a(g54
g60
F0.9411764705882353
tp773
a(g54
g62
F0.0
tp774
a(g54
g64
F0.85
tp775
a(g54
g66
F0.0
tp776
a(g54
g68
F0.0
tp777
a(g54
g70
F0.9444444444444444
tp778
a(g54
g72
F0.0
tp779
a(g54
g74
F0.0
tp780
a(g54
g76
F0.0
tp781
a(g54
g78
F0.0
tp782
a(g54
g80
F0.0
tp783
a(g56
g58
F0.8823529411764706
tp784
a(g56
g60
F0.9411764705882353
tp785
a(g56
g62
F0.0
tp786
a(g56
g64
F0.0
tp787
a(g56
g66
F0.0
tp788
a(g56
g68
F0.0
tp789
a(g56
g70
F0.9444444444444444
tp790
a(g56
g72
F0.0
tp791
a(g56
g74
F0.0
tp792
a(g56
g76
F0.0
tp793
a(g56
g78
F0.0
tp794
a(g56
g80
F0.0
tp795
a(g58
g60
F0.0
tp796
a(g58
g62
F0.0
tp797
a(g58
g64
F0.75
tp798
a(g58
g66
F0.0
tp799
a(g58
g68
F0.0
tp800
a(g58
g70
F0.8333333333333334
tp801
a(g58
g72
F0.0
tp802
a(g58
g74
F0.0
tp803
a(g58
g76
F0.8333333333333334
tp804
a(g58
g78
F0.75
tp805
a(g58
g80
F1.0
tp806
a(g60
g62
F0.0
tp807
a(g60
g64
F0.8
tp808
a(g60
g66
F0.0
tp809
a(g60
g68
F0.0
tp810
a(g60
g70
F0.8888888888888888
tp811
a(g60
g72
F0.0
tp812
a(g60
g74
F0.0
tp813
a(g60
g76
F0.8888888888888888
tp814
a(g60
g78
F0.8
tp815
a(g60
g80
F0.0
tp816
a(g62
g64
F0.0
tp817
a(g62
g66
F0.0
tp818
a(g62
g68
F1.0
tp819
a(g62
g70
F0.0
tp820
a(g62
g72
F0.0
tp821
a(g62
g74
F0.0
tp822
a(g62
g76
F0.0
tp823
a(g62
g78
F0.8
tp824
a(g62
g80
F0.0
tp825
a(g64
g66
I0
tp826
a(g64
g68
F0.0
tp827
a(g64
g70
F0.0
tp828
a(g64
g72
F0.0
tp829
a(g64
g74
F0.0
tp830
a(g64
g76
F0.0
tp831
a(g64
g78
F0.0
tp832
a(g64
g80
F0.0
tp833
a(g66
g68
F0.0
tp834
a(g66
g70
F0.0
tp835
a(g66
g72
F0.0
tp836
a(g66
g74
F0.0
tp837
a(g66
g76
F0.0
tp838
a(g66
g78
I0
tp839
a(g66
g80
F0.8666666666666667
tp840
a(g68
g70
F0.0
tp841
a(g68
g72
F0.0
tp842
a(g68
g74
F0.0
tp843
a(g68
g76
F0.0
tp844
a(g68
g78
F0.8
tp845
a(g68
g80
F0.0
tp846
a(g70
g72
F0.0
tp847
a(g70
g74
F0.0
tp848
a(g70
g76
F0.0
tp849
a(g70
g78
F0.0
tp850
a(g70
g80
F0.0
tp851
a(g72
g74
F0.0
tp852
a(g72
g76
F0.0
tp853
a(g72
g78
F0.0
tp854
a(g72
g80
F0.0
tp855
a(g74
g76
F0.0
tp856
a(g74
g78
F0.0
tp857
a(g74
g80
F0.0
tp858
a(g76
g78
F0.0
tp859
a(g76
g80
F0.0
tp860
a(g78
g80
F0.0
tp861
a.(lp0
(lp1
S'/home/perseus/Sem-9/Thesis/Data/CodeForces/11/Correct/A21.c'
p2
aS'/home/perseus/Sem-9/Thesis/Data/CodeForces/11/Correct/A12.c'
p3
aS'/home/perseus/Sem-9/Thesis/Data/CodeForces/11/Correct/A27.c'
p4
aS'/home/perseus/Sem-9/Thesis/Data/CodeForces/11/Correct/A11.c'
p5
aS'/home/perseus/Sem-9/Thesis/Data/CodeForces/11/Correct/A14.c'
p6
aS'/home/perseus/Sem-9/Thesis/Data/CodeForces/11/Correct/A17.c'
p7
aS'/home/perseus/Sem-9/Thesis/Data/CodeForces/11/Correct/A30.c'
p8
aS'/home/perseus/Sem-9/Thesis/Data/CodeForces/11/Correct/A20.c'
p9
aS'/home/perseus/Sem-9/Thesis/Data/CodeForces/11/Correct/A25.c'
p10
aS'/home/perseus/Sem-9/Thesis/Data/CodeForces/11/Correct/A29.c'
p11
aS'/home/perseus/Sem-9/Thesis/Data/CodeForces/11/Correct/A3.c'
p12
aa(lp13
S'/home/perseus/Sem-9/Thesis/Data/CodeForces/11/Correct/A41.c'
p14
aS'/home/perseus/Sem-9/Thesis/Data/CodeForces/11/Correct/A26.c'
p15
aS'/home/perseus/Sem-9/Thesis/Data/CodeForces/11/Correct/A34.c'
p16
aS'/home/perseus/Sem-9/Thesis/Data/CodeForces/11/Correct/A37.c'
p17
aS'/home/perseus/Sem-9/Thesis/Data/CodeForces/11/Correct/A8.c'
p18
aS'/home/perseus/Sem-9/Thesis/Data/CodeForces/11/Correct/A32.c'
p19
aS'/home/perseus/Sem-9/Thesis/Data/CodeForces/11/Correct/A5.c'
p20
aS'/home/perseus/Sem-9/Thesis/Data/CodeForces/11/Correct/A6.c'
p21
aS'/home/perseus/Sem-9/Thesis/Data/CodeForces/11/Correct/A15.c'
p22
aS'/home/perseus/Sem-9/Thesis/Data/CodeForces/11/Correct/A2.c'
p23
aS'/home/perseus/Sem-9/Thesis/Data/CodeForces/11/Correct/A43.c'
p24
aS'/home/perseus/Sem-9/Thesis/Data/CodeForces/11/Correct/A38.c'
p25
aS'/home/perseus/Sem-9/Thesis/Data/CodeForces/11/Correct/A36.c'
p26
aS'/home/perseus/Sem-9/Thesis/Data/CodeForces/11/Correct/A22.c'
p27
aS'/home/perseus/Sem-9/Thesis/Data/CodeForces/11/Correct/A31.c'
p28
aS'/home/perseus/Sem-9/Thesis/Data/CodeForces/11/Correct/A23.c'
p29
aa(lp30
S'/home/perseus/Sem-9/Thesis/Data/CodeForces/11/Correct/A42.c'
p31
aS'/home/perseus/Sem-9/Thesis/Data/CodeForces/11/Correct/A13.c'
p32
aS'/home/perseus/Sem-9/Thesis/Data/CodeForces/11/Correct/A1.c'
p33
aS'/home/perseus/Sem-9/Thesis/Data/CodeForces/11/Correct/A10.c'
p34
aS'/home/perseus/Sem-9/Thesis/Data/CodeForces/11/Correct/A18.c'
p35
aS'/home/perseus/Sem-9/Thesis/Data/CodeForces/11/Correct/A7.c'
p36
aS'/home/perseus/Sem-9/Thesis/Data/CodeForces/11/Correct/A33.c'
p37
aS'/home/perseus/Sem-9/Thesis/Data/CodeForces/11/Correct/A28.c'
p38
aa(lp39
S'/home/perseus/Sem-9/Thesis/Data/CodeForces/11/Correct/A9.c'
p40
aS'/home/perseus/Sem-9/Thesis/Data/CodeForces/11/Correct/A19.c'
p41
aa(lp42
S'/home/perseus/Sem-9/Thesis/Data/CodeForces/11/Correct/A40.c'
p43
aS'/home/perseus/Sem-9/Thesis/Data/CodeForces/11/Correct/A39.c'
p44
aa(lp45
S'/home/perseus/Sem-9/Thesis/Data/CodeForces/11/Correct/A4.c'
p46
aa(lp47
S'/home/perseus/Sem-9/Thesis/Data/CodeForces/11/Correct/A24.c'
p48
aa.(lp0
(S'/home/perseus/Sem-9/Thesis/Data/CodeForces/11/Incorrect/A19.c'
p1
F70.37037037037037
tp2
a(S'/home/perseus/Sem-9/Thesis/Data/CodeForces/11/Incorrect/A1.c'
p3
F0.0
tp4
a(S'/home/perseus/Sem-9/Thesis/Data/CodeForces/11/Incorrect/A3.c'
p5
I0
tp6
a(S'/home/perseus/Sem-9/Thesis/Data/CodeForces/11/Incorrect/A6.c'
p7
F0.0
tp8
a(S'/home/perseus/Sem-9/Thesis/Data/CodeForces/11/Incorrect/A26.c'
p9
F89.47368421052632
tp10
a(S'/home/perseus/Sem-9/Thesis/Data/CodeForces/11/Incorrect/A13.c'
p11
F0.0
tp12
a(S'/home/perseus/Sem-9/Thesis/Data/CodeForces/11/Incorrect/A17.c'
p13
F70.37037037037037
tp14
a(S'/home/perseus/Sem-9/Thesis/Data/CodeForces/11/Incorrect/A28.c'
p15
F84.21052631578947
tp16
a(S'/home/perseus/Sem-9/Thesis/Data/CodeForces/11/Incorrect/A24.c'
p17
F0.0
tp18
a(S'/home/perseus/Sem-9/Thesis/Data/CodeForces/11/Incorrect/A4.c'
p19
F0.0
tp20
a(S'/home/perseus/Sem-9/Thesis/Data/CodeForces/11/Incorrect/A29.c'
p21
F70.37037037037037
tp22
a(S'/home/perseus/Sem-9/Thesis/Data/CodeForces/11/Incorrect/A5.c'
p23
F0.0
tp24
a(S'/home/perseus/Sem-9/Thesis/Data/CodeForces/11/Incorrect/A22.c'
p25
F95.0
tp26
a(S'/home/perseus/Sem-9/Thesis/Data/CodeForces/11/Incorrect/A14.c'
p27
F89.47368421052632
tp28
a(S'/home/perseus/Sem-9/Thesis/Data/CodeForces/11/Incorrect/A9.c'
p29
F81.48148148148148
tp30
a(S'/home/perseus/Sem-9/Thesis/Data/CodeForces/11/Incorrect/A2.c'
p31
F0.0
tp32
a(S'/home/perseus/Sem-9/Thesis/Data/CodeForces/11/Incorrect/A11.c'
p33
F0.0
tp34
a(S'/home/perseus/Sem-9/Thesis/Data/CodeForces/11/Incorrect/A25.c'
p35
F100.0
tp36
a(S'/home/perseus/Sem-9/Thesis/Data/CodeForces/11/Incorrect/A10.c'
p37
F74.07407407407408
tp38
a(S'/home/perseus/Sem-9/Thesis/Data/CodeForces/11/Incorrect/A7.c'
p39
F0.0
tp40
a(S'/home/perseus/Sem-9/Thesis/Data/CodeForces/11/Incorrect/A12.c'
p41
F0.0
tp42
a(S'/home/perseus/Sem-9/Thesis/Data/CodeForces/11/Incorrect/A16.c'
p43
F70.37037037037037
tp44
a(S'/home/perseus/Sem-9/Thesis/Data/CodeForces/11/Incorrect/A18.c'
p45
F78.94736842105263
tp46
a(S'/home/perseus/Sem-9/Thesis/Data/CodeForces/11/Incorrect/A23.c'
p47
F0.0
tp48
a(S'/home/perseus/Sem-9/Thesis/Data/CodeForces/11/Incorrect/A27.c'
p49
F78.94736842105263
tp50
a(S'/home/perseus/Sem-9/Thesis/Data/CodeForces/11/Incorrect/A8.c'
p51
F70.37037037037037
tp52
a(S'/home/perseus/Sem-9/Thesis/Data/CodeForces/11/Incorrect/A21.c'
p53
F100.0
tp54
a(S'/home/perseus/Sem-9/Thesis/Data/CodeForces/11/Incorrect/A20.c'
p55
F0.0
tp56
a(S'/home/perseus/Sem-9/Thesis/Data/CodeForces/11/Incorrect/A15.c'
p57
F100.0
tp58
a.