(lp0
(S'/home/perseus/Academics/Sem-9/Thesis/Data/CodeForces/15/Correct/A14.c'
p1
S'/home/perseus/Academics/Sem-9/Thesis/Data/CodeForces/15/Correct/A17.c'
p2
F0.0
tp3
a(g1
S'/home/perseus/Academics/Sem-9/Thesis/Data/CodeForces/15/Correct/A21.c'
p4
F0.0
tp5
a(g1
S'/home/perseus/Academics/Sem-9/Thesis/Data/CodeForces/15/Correct/A3.c'
p6
F0.0
tp7
a(g1
S'/home/perseus/Academics/Sem-9/Thesis/Data/CodeForces/15/Correct/A5.c'
p8
F0.0
tp9
a(g1
S'/home/perseus/Academics/Sem-9/Thesis/Data/CodeForces/15/Correct/A18.c'
p10
F0.0
tp11
a(g1
S'/home/perseus/Academics/Sem-9/Thesis/Data/CodeForces/15/Correct/A9.c'
p12
F0.0
tp13
a(g1
S'/home/perseus/Academics/Sem-9/Thesis/Data/CodeForces/15/Correct/A26.c'
p14
F0.0
tp15
a(g1
S'/home/perseus/Academics/Sem-9/Thesis/Data/CodeForces/15/Correct/A2.c'
p16
F0.0
tp17
a(g1
S'/home/perseus/Academics/Sem-9/Thesis/Data/CodeForces/15/Correct/A6.c'
p18
F0.0
tp19
a(g1
S'/home/perseus/Academics/Sem-9/Thesis/Data/CodeForces/15/Correct/A23.c'
p20
F0.0
tp21
a(g1
S'/home/perseus/Academics/Sem-9/Thesis/Data/CodeForces/15/Correct/A15.c'
p22
F0.0
tp23
a(g1
S'/home/perseus/Academics/Sem-9/Thesis/Data/CodeForces/15/Correct/A19.c'
p24
F0.0
tp25
a(g1
S'/home/perseus/Academics/Sem-9/Thesis/Data/CodeForces/15/Correct/A4.c'
p26
F0.0
tp27
a(g1
S'/home/perseus/Academics/Sem-9/Thesis/Data/CodeForces/15/Correct/A11.c'
p28
F0.0
tp29
a(g1
S'/home/perseus/Academics/Sem-9/Thesis/Data/CodeForces/15/Correct/A8.c'
p30
F0.0
tp31
a(g1
S'/home/perseus/Academics/Sem-9/Thesis/Data/CodeForces/15/Correct/A13.c'
p32
F0.0
tp33
a(g1
S'/home/perseus/Academics/Sem-9/Thesis/Data/CodeForces/15/Correct/A10.c'
p34
F0.0
tp35
a(g1
S'/home/perseus/Academics/Sem-9/Thesis/Data/CodeForces/15/Correct/A24.c'
p36
F0.0
tp37
a(g1
S'/home/perseus/Academics/Sem-9/Thesis/Data/CodeForces/15/Correct/A16.c'
p38
F0.0
tp39
a(g1
S'/home/perseus/Academics/Sem-9/Thesis/Data/CodeForces/15/Correct/A22.c'
p40
F0.0
tp41
a(g1
S'/home/perseus/Academics/Sem-9/Thesis/Data/CodeForces/15/Correct/A20.c'
p42
F0.0
tp43
a(g1
S'/home/perseus/Academics/Sem-9/Thesis/Data/CodeForces/15/Correct/A25.c'
p44
F0.0
tp45
a(g1
S'/home/perseus/Academics/Sem-9/Thesis/Data/CodeForces/15/Correct/A1.c'
p46
F0.0
tp47
a(g1
S'/home/perseus/Academics/Sem-9/Thesis/Data/CodeForces/15/Correct/A7.c'
p48
F0.0
tp49
a(g2
g4
F0.0
tp50
a(g2
g6
F0.0
tp51
a(g2
g8
F0.0
tp52
a(g2
g10
F0.0
tp53
a(g2
g12
F0.0
tp54
a(g2
g14
F0.0
tp55
a(g2
g16
F0.0
tp56
a(g2
g18
F0.0
tp57
a(g2
g20
F0.0
tp58
a(g2
g22
F0.0
tp59
a(g2
g24
F0.0
tp60
a(g2
g26
F0.0
tp61
a(g2
g28
F0.0
tp62
a(g2
g30
F0.0
tp63
a(g2
g32
F0.0
tp64
a(g2
g34
F0.0
tp65
a(g2
g36
F0.0
tp66
a(g2
g38
F0.0
tp67
a(g2
g40
F0.0
tp68
a(g2
g42
F0.0
tp69
a(g2
g44
F0.0
tp70
a(g2
g46
F0.0
tp71
a(g2
g48
F0.0
tp72
a(g4
g6
F0.0
tp73
a(g4
g8
F0.0
tp74
a(g4
g10
F0.0
tp75
a(g4
g12
F0.0
tp76
a(g4
g14
F0.0
tp77
a(g4
g16
F0.0
tp78
a(g4
g18
F0.0
tp79
a(g4
g20
F0.0
tp80
a(g4
g22
F0.0
tp81
a(g4
g24
F0.0
tp82
a(g4
g26
F0.0
tp83
a(g4
g28
F0.0
tp84
a(g4
g30
F0.0
tp85
a(g4
g32
F0.0
tp86
a(g4
g34
F0.0
tp87
a(g4
g36
F0.0
tp88
a(g4
g38
F0.0
tp89
a(g4
g40
F0.0
tp90
a(g4
g42
F0.0
tp91
a(g4
g44
F0.0
tp92
a(g4
g46
F0.0
tp93
a(g4
g48
F0.0
tp94
a(g6
g8
F0.0
tp95
a(g6
g10
F0.0
tp96
a(g6
g12
F0.0
tp97
a(g6
g14
F0.0
tp98
a(g6
g16
F0.0
tp99
a(g6
g18
F0.0
tp100
a(g6
g20
F0.0
tp101
a(g6
g22
F0.0
tp102
a(g6
g24
F0.0
tp103
a(g6
g26
F0.0
tp104
a(g6
g28
F0.0
tp105
a(g6
g30
F0.0
tp106
a(g6
g32
F0.0
tp107
a(g6
g34
F0.0
tp108
a(g6
g36
F0.0
tp109
a(g6
g38
F0.0
tp110
a(g6
g40
F0.0
tp111
a(g6
g42
F0.0
tp112
a(g6
g44
F0.0
tp113
a(g6
g46
F0.0
tp114
a(g6
g48
F0.0
tp115
a(g8
g10
F0.0
tp116
a(g8
g12
F0.0
tp117
a(g8
g14
F0.0
tp118
a(g8
g16
F0.0
tp119
a(g8
g18
F0.0
tp120
a(g8
g20
F0.0
tp121
a(g8
g22
F0.0
tp122
a(g8
g24
F0.0
tp123
a(g8
g26
F0.0
tp124
a(g8
g28
F0.0
tp125
a(g8
g30
F0.0
tp126
a(g8
g32
F0.0
tp127
a(g8
g34
F0.0
tp128
a(g8
g36
F0.0
tp129
a(g8
g38
F0.0
tp130
a(g8
g40
F0.0
tp131
a(g8
g42
F0.0
tp132
a(g8
g44
F0.0
tp133
a(g8
g46
F0.0
tp134
a(g8
g48
F0.0
tp135
a(g10
g12
F0.0
tp136
a(g10
g14
F0.0
tp137
a(g10
g16
F0.0
tp138
a(g10
g18
F0.0
tp139
a(g10
g20
F0.0
tp140
a(g10
g22
F0.0
tp141
a(g10
g24
F0.0
tp142
a(g10
g26
F0.0
tp143
a(g10
g28
F0.0
tp144
a(g10
g30
F0.0
tp145
a(g10
g32
F0.0
tp146
a(g10
g34
F0.0
tp147
a(g10
g36
F0.0
tp148
a(g10
g38
F0.0
tp149
a(g10
g40
F0.0
tp150
a(g10
g42
F0.0
tp151
a(g10
g44
F0.0
tp152
a(g10
g46
F0.0
tp153
a(g10
g48
F0.0
tp154
a(g12
g14
F0.0
tp155
a(g12
g16
F0.0
tp156
a(g12
g18
F0.0
tp157
a(g12
g20
F0.0
tp158
a(g12
g22
F0.0
tp159
a(g12
g24
F0.0
tp160
a(g12
g26
F0.0
tp161
a(g12
g28
F0.0
tp162
a(g12
g30
F0.0
tp163
a(g12
g32
F0.0
tp164
a(g12
g34
F0.0
tp165
a(g12
g36
F0.0
tp166
a(g12
g38
F0.0
tp167
a(g12
g40
F0.0
tp168
a(g12
g42
F0.0
tp169
a(g12
g44
F0.0
tp170
a(g12
g46
F0.0
tp171
a(g12
g48
F0.0
tp172
a(g14
g16
F0.0
tp173
a(g14
g18
F0.0
tp174
a(g14
g20
F0.0
tp175
a(g14
g22
F0.0
tp176
a(g14
g24
F0.0
tp177
a(g14
g26
F0.0
tp178
a(g14
g28
F0.0
tp179
a(g14
g30
F0.0
tp180
a(g14
g32
F0.0
tp181
a(g14
g34
F0.0
tp182
a(g14
g36
F0.0
tp183
a(g14
g38
F0.0
tp184
a(g14
g40
F0.0
tp185
a(g14
g42
F0.0
tp186
a(g14
g44
F1.0
tp187
a(g14
g46
F0.0
tp188
a(g14
g48
F0.0
tp189
a(g16
g18
F0.0
tp190
a(g16
g20
F0.0
tp191
a(g16
g22
F0.0
tp192
a(g16
g24
F0.0
tp193
a(g16
g26
F0.0
tp194
a(g16
g28
F0.0
tp195
a(g16
g30
F0.0
tp196
a(g16
g32
F0.0
tp197
a(g16
g34
F0.0
tp198
a(g16
g36
F0.0
tp199
a(g16
g38
F0.0
tp200
a(g16
g40
F1.0
tp201
a(g16
g42
F0.0
tp202
a(g16
g44
F0.0
tp203
a(g16
g46
F0.0
tp204
a(g16
g48
F0.0
tp205
a(g18
g20
F0.0
tp206
a(g18
g22
F0.0
tp207
a(g18
g24
F0.0
tp208
a(g18
g26
F0.0
tp209
a(g18
g28
F0.0
tp210
a(g18
g30
F0.0
tp211
a(g18
g32
F0.0
tp212
a(g18
g34
F0.0
tp213
a(g18
g36
F0.0
tp214
a(g18
g38
F0.0
tp215
a(g18
g40
F0.0
tp216
a(g18
g42
F0.0
tp217
a(g18
g44
F0.0
tp218
a(g18
g46
F0.0
tp219
a(g18
g48
F0.0
tp220
a(g20
g22
F0.0
tp221
a(g20
g24
F0.0
tp222
a(g20
g26
F0.0
tp223
a(g20
g28
F0.0
tp224
a(g20
g30
F0.0
tp225
a(g20
g32
F0.0
tp226
a(g20
g34
F0.0
tp227
a(g20
g36
F0.0
tp228
a(g20
g38
F0.0
tp229
a(g20
g40
F0.0
tp230
a(g20
g42
F0.0
tp231
a(g20
g44
F0.0
tp232
a(g20
g46
F0.0
tp233
a(g20
g48
F0.0
tp234
a(g22
g24
F0.0
tp235
a(g22
g26
F0.0
tp236
a(g22
g28
F0.0
tp237
a(g22
g30
F0.0
tp238
a(g22
g32
F0.0
tp239
a(g22
g34
F0.0
tp240
a(g22
g36
F0.0
tp241
a(g22
g38
F0.0
tp242
a(g22
g40
F0.0
tp243
a(g22
g42
F0.0
tp244
a(g22
g44
F0.0
tp245
a(g22
g46
F0.0
tp246
a(g22
g48
F0.0
tp247
a(g24
g26
F0.0
tp248
a(g24
g28
F0.0
tp249
a(g24
g30
F0.0
tp250
a(g24
g32
F0.0
tp251
a(g24
g34
F0.0
tp252
a(g24
g36
F0.0
tp253
a(g24
g38
F0.0
tp254
a(g24
g40
F0.0
tp255
a(g24
g42
F0.0
tp256
a(g24
g44
F0.0
tp257
a(g24
g46
F0.0
tp258
a(g24
g48
F0.0
tp259
a(g26
g28
F0.0
tp260
a(g26
g30
F0.0
tp261
a(g26
g32
F0.0
tp262
a(g26
g34
F0.0
tp263
a(g26
g36
F0.0
tp264
a(g26
g38
F0.0
tp265
a(g26
g40
F0.0
tp266
a(g26
g42
F0.0
tp267
a(g26
g44
F0.0
tp268
a(g26
g46
F0.0
tp269
a(g26
g48
F0.0
tp270
a(g28
g30
F0.0
tp271
a(g28
g32
F0.0
tp272
a(g28
g34
F0.0
tp273
a(g28
g36
F0.0
tp274
a(g28
g38
F0.0
tp275
a(g28
g40
F0.0
tp276
a(g28
g42
F0.0
tp277
a(g28
g44
F0.0
tp278
a(g28
g46
F0.0
tp279
a(g28
g48
F0.0
tp280
a(g30
g32
F0.0
tp281
a(g30
g34
F0.0
tp282
a(g30
g36
F0.0
tp283
a(g30
g38
F0.0
tp284
a(g30
g40
F0.0
tp285
a(g30
g42
F0.0
tp286
a(g30
g44
F0.0
tp287
a(g30
g46
F0.0
tp288
a(g30
g48
F0.0
tp289
a(g32
g34
F0.0
tp290
a(g32
g36
F0.0
tp291
a(g32
g38
F0.0
tp292
a(g32
g40
F0.0
tp293
a(g32
g42
F0.0
tp294
a(g32
g44
F0.0
tp295
a(g32
g46
F0.0
tp296
a(g32
g48
F0.0
tp297
a(g34
g36
F0.0
tp298
a(g34
g38
F0.0
tp299
a(g34
g40
F0.0
tp300
a(g34
g42
F0.0
tp301
a(g34
g44
F0.0
tp302
a(g34
g46
F0.0
tp303
a(g34
g48
F0.0
tp304
a(g36
g38
F0.0
tp305
a(g36
g40
F0.0
tp306
a(g36
g42
F0.0
tp307
a(g36
g44
F0.0
tp308
a(g36
g46
F0.0
tp309
a(g36
g48
F0.0
tp310
a(g38
g40
F0.0
tp311
a(g38
g42
F0.0
tp312
a(g38
g44
F0.0
tp313
a(g38
g46
F0.0
tp314
a(g38
g48
F0.0
tp315
a(g40
g42
F0.0
tp316
a(g40
g44
F0.0
tp317
a(g40
g46
F0.0
tp318
a(g40
g48
F0.0
tp319
a(g42
g44
F0.0
tp320
a(g42
g46
F0.0
tp321
a(g42
g48
F0.0
tp322
a(g44
g46
F0.0
tp323
a(g44
g48
F0.0
tp324
a(g46
g48
F0.0
tp325
a.(lp0
(lp1
S'/home/perseus/Academics/Sem-9/Thesis/Data/CodeForces/15/Correct/A21.c'
p2
aa(lp3
S'/home/perseus/Academics/Sem-9/Thesis/Data/CodeForces/15/Correct/A24.c'
p4
aa(lp5
S'/home/perseus/Academics/Sem-9/Thesis/Data/CodeForces/15/Correct/A20.c'
p6
aa(lp7
S'/home/perseus/Academics/Sem-9/Thesis/Data/CodeForces/15/Correct/A1.c'
p8
aa(lp9
S'/home/perseus/Academics/Sem-9/Thesis/Data/CodeForces/15/Correct/A25.c'
p10
aS'/home/perseus/Academics/Sem-9/Thesis/Data/CodeForces/15/Correct/A26.c'
p11
aa(lp12
S'/home/perseus/Academics/Sem-9/Thesis/Data/CodeForces/15/Correct/A5.c'
p13
aa(lp14
S'/home/perseus/Academics/Sem-9/Thesis/Data/CodeForces/15/Correct/A6.c'
p15
aa(lp16
S'/home/perseus/Academics/Sem-9/Thesis/Data/CodeForces/15/Correct/A3.c'
p17
aa(lp18
S'/home/perseus/Academics/Sem-9/Thesis/Data/CodeForces/15/Correct/A2.c'
p19
aS'/home/perseus/Academics/Sem-9/Thesis/Data/CodeForces/15/Correct/A22.c'
p20
aa(lp21
S'/home/perseus/Academics/Sem-9/Thesis/Data/CodeForces/15/Correct/A16.c'
p22
aa(lp23
S'/home/perseus/Academics/Sem-9/Thesis/Data/CodeForces/15/Correct/A17.c'
p24
aa(lp25
S'/home/perseus/Academics/Sem-9/Thesis/Data/CodeForces/15/Correct/A23.c'
p26
aa(lp27
S'/home/perseus/Academics/Sem-9/Thesis/Data/CodeForces/15/Correct/A11.c'
p28
aa(lp29
S'/home/perseus/Academics/Sem-9/Thesis/Data/CodeForces/15/Correct/A19.c'
p30
aa(lp31
S'/home/perseus/Academics/Sem-9/Thesis/Data/CodeForces/15/Correct/A18.c'
p32
aa(lp33
S'/home/perseus/Academics/Sem-9/Thesis/Data/CodeForces/15/Correct/A14.c'
p34
aa(lp35
S'/home/perseus/Academics/Sem-9/Thesis/Data/CodeForces/15/Correct/A15.c'
p36
aa(lp37
S'/home/perseus/Academics/Sem-9/Thesis/Data/CodeForces/15/Correct/A7.c'
p38
aa(lp39
S'/home/perseus/Academics/Sem-9/Thesis/Data/CodeForces/15/Correct/A10.c'
p40
aa(lp41
S'/home/perseus/Academics/Sem-9/Thesis/Data/CodeForces/15/Correct/A13.c'
p42
aa(lp43
S'/home/perseus/Academics/Sem-9/Thesis/Data/CodeForces/15/Correct/A4.c'
p44
aa(lp45
S'/home/perseus/Academics/Sem-9/Thesis/Data/CodeForces/15/Correct/A9.c'
p46
aa(lp47
S'/home/perseus/Academics/Sem-9/Thesis/Data/CodeForces/15/Correct/A8.c'
p48
aa.(lp0
(S'/home/perseus/Academics/Sem-9/Thesis/Data/CodeForces/15/Incorrect/A28.c'
p1
F100.0
tp2
a(S'/home/perseus/Academics/Sem-9/Thesis/Data/CodeForces/15/Incorrect/A14.c'
p3
F0.0
tp4
a(S'/home/perseus/Academics/Sem-9/Thesis/Data/CodeForces/15/Incorrect/A38.c'
p5
F0.0
tp6
a(S'/home/perseus/Academics/Sem-9/Thesis/Data/CodeForces/15/Incorrect/A30.c'
p7
F100.0
tp8
a(S'/home/perseus/Academics/Sem-9/Thesis/Data/CodeForces/15/Incorrect/A17.c'
p9
F100.0
tp10
a(S'/home/perseus/Academics/Sem-9/Thesis/Data/CodeForces/15/Incorrect/A31.c'
p11
F94.44444444444444
tp12
a(S'/home/perseus/Academics/Sem-9/Thesis/Data/CodeForces/15/Incorrect/A21.c'
p13
F0.0
tp14
a(S'/home/perseus/Academics/Sem-9/Thesis/Data/CodeForces/15/Incorrect/A3.c'
p15
F0.0
tp16
a(S'/home/perseus/Academics/Sem-9/Thesis/Data/CodeForces/15/Incorrect/A44.c'
p17
F0.0
tp18
a(S'/home/perseus/Academics/Sem-9/Thesis/Data/CodeForces/15/Incorrect/A5.c'
p19
F0.0
tp20
a(S'/home/perseus/Academics/Sem-9/Thesis/Data/CodeForces/15/Incorrect/A18.c'
p21
F100.0
tp22
a(S'/home/perseus/Academics/Sem-9/Thesis/Data/CodeForces/15/Incorrect/A43.c'
p23
F0.0
tp24
a(S'/home/perseus/Academics/Sem-9/Thesis/Data/CodeForces/15/Incorrect/A9.c'
p25
F0.0
tp26
a(S'/home/perseus/Academics/Sem-9/Thesis/Data/CodeForces/15/Incorrect/A34.c'
p27
F0.0
tp28
a(S'/home/perseus/Academics/Sem-9/Thesis/Data/CodeForces/15/Incorrect/A26.c'
p29
F0.0
tp30
a(S'/home/perseus/Academics/Sem-9/Thesis/Data/CodeForces/15/Incorrect/A2.c'
p31
F0.0
tp32
a(S'/home/perseus/Academics/Sem-9/Thesis/Data/CodeForces/15/Incorrect/A32.c'
p33
F100.0
tp34
a(S'/home/perseus/Academics/Sem-9/Thesis/Data/CodeForces/15/Incorrect/A46.c'
p35
F92.42424242424242
tp36
a(S'/home/perseus/Academics/Sem-9/Thesis/Data/CodeForces/15/Incorrect/A6.c'
p37
F84.31372549019608
tp38
a(S'/home/perseus/Academics/Sem-9/Thesis/Data/CodeForces/15/Incorrect/A23.c'
p39
F0.0
tp40
a(S'/home/perseus/Academics/Sem-9/Thesis/Data/CodeForces/15/Incorrect/A36.c'
p41
F100.0
tp42
a(S'/home/perseus/Academics/Sem-9/Thesis/Data/CodeForces/15/Incorrect/A15.c'
p43
F96.29629629629629
tp44
a(S'/home/perseus/Academics/Sem-9/Thesis/Data/CodeForces/15/Incorrect/A19.c'
p45
F96.29629629629629
tp46
a(S'/home/perseus/Academics/Sem-9/Thesis/Data/CodeForces/15/Incorrect/A45.c'
p47
F100.0
tp48
a(S'/home/perseus/Academics/Sem-9/Thesis/Data/CodeForces/15/Incorrect/A4.c'
p49
F0.0
tp50
a(S'/home/perseus/Academics/Sem-9/Thesis/Data/CodeForces/15/Incorrect/A41.c'
p51
F0.0
tp52
a(S'/home/perseus/Academics/Sem-9/Thesis/Data/CodeForces/15/Incorrect/A11.c'
p53
F95.83333333333334
tp54
a(S'/home/perseus/Academics/Sem-9/Thesis/Data/CodeForces/15/Incorrect/A8.c'
p55
F0.0
tp56
a(S'/home/perseus/Academics/Sem-9/Thesis/Data/CodeForces/15/Incorrect/A40.c'
p57
F0.0
tp58
a(S'/home/perseus/Academics/Sem-9/Thesis/Data/CodeForces/15/Incorrect/A13.c'
p59
F94.11764705882352
tp60
a(S'/home/perseus/Academics/Sem-9/Thesis/Data/CodeForces/15/Incorrect/A37.c'
p61
F0.0
tp62
a(S'/home/perseus/Academics/Sem-9/Thesis/Data/CodeForces/15/Incorrect/A10.c'
p63
F0.0
tp64
a(S'/home/perseus/Academics/Sem-9/Thesis/Data/CodeForces/15/Incorrect/A24.c'
p65
F0.0
tp66
a(S'/home/perseus/Academics/Sem-9/Thesis/Data/CodeForces/15/Incorrect/A16.c'
p67
F100.0
tp68
a(S'/home/perseus/Academics/Sem-9/Thesis/Data/CodeForces/15/Incorrect/A33.c'
p69
F0.0
tp70
a(S'/home/perseus/Academics/Sem-9/Thesis/Data/CodeForces/15/Incorrect/A29.c'
p71
F69.56521739130434
tp72
a(S'/home/perseus/Academics/Sem-9/Thesis/Data/CodeForces/15/Incorrect/A22.c'
p73
F0.0
tp74
a(S'/home/perseus/Academics/Sem-9/Thesis/Data/CodeForces/15/Incorrect/A20.c'
p75
F0.0
tp76
a(S'/home/perseus/Academics/Sem-9/Thesis/Data/CodeForces/15/Incorrect/A42.c'
p77
F0.0
tp78
a(S'/home/perseus/Academics/Sem-9/Thesis/Data/CodeForces/15/Incorrect/A25.c'
p79
F32.926829268292686
tp80
a(S'/home/perseus/Academics/Sem-9/Thesis/Data/CodeForces/15/Incorrect/A27.c'
p81
F59.43396226415094
tp82
a(S'/home/perseus/Academics/Sem-9/Thesis/Data/CodeForces/15/Incorrect/A47.c'
p83
F0.0
tp84
a(S'/home/perseus/Academics/Sem-9/Thesis/Data/CodeForces/15/Incorrect/A35.c'
p85
F0.0
tp86
a(S'/home/perseus/Academics/Sem-9/Thesis/Data/CodeForces/15/Incorrect/A1.c'
p87
F0.0
tp88
a(S'/home/perseus/Academics/Sem-9/Thesis/Data/CodeForces/15/Incorrect/A7.c'
p89
F0.0
tp90
a(S'/home/perseus/Academics/Sem-9/Thesis/Data/CodeForces/15/Incorrect/A12.c'
p91
F95.83333333333334
tp92
a.