(lp0
(S'/home/perseus/Sem-9/Thesis/Data/CodeForces/16/Correct/A19.c'
p1
S'/home/perseus/Sem-9/Thesis/Data/CodeForces/16/Correct/A1.c'
p2
I0
tp3
a(g1
S'/home/perseus/Sem-9/Thesis/Data/CodeForces/16/Correct/A3.c'
p4
I0
tp5
a(g1
S'/home/perseus/Sem-9/Thesis/Data/CodeForces/16/Correct/A56.c'
p6
I0
tp7
a(g1
S'/home/perseus/Sem-9/Thesis/Data/CodeForces/16/Correct/A63.c'
p8
I0
tp9
a(g1
S'/home/perseus/Sem-9/Thesis/Data/CodeForces/16/Correct/A52.c'
p10
F0.6097560975609756
tp11
a(g1
S'/home/perseus/Sem-9/Thesis/Data/CodeForces/16/Correct/A66.c'
p12
F0.5853658536585366
tp13
a(g1
S'/home/perseus/Sem-9/Thesis/Data/CodeForces/16/Correct/A37.c'
p14
I0
tp15
a(g1
S'/home/perseus/Sem-9/Thesis/Data/CodeForces/16/Correct/A40.c'
p16
F0.6341463414634146
tp17
a(g1
S'/home/perseus/Sem-9/Thesis/Data/CodeForces/16/Correct/A6.c'
p18
F0.6829268292682927
tp19
a(g1
S'/home/perseus/Sem-9/Thesis/Data/CodeForces/16/Correct/A70.c'
p20
I0
tp21
a(g1
S'/home/perseus/Sem-9/Thesis/Data/CodeForces/16/Correct/A26.c'
p22
I0
tp23
a(g1
S'/home/perseus/Sem-9/Thesis/Data/CodeForces/16/Correct/A57.c'
p24
F0.6829268292682927
tp25
a(g1
S'/home/perseus/Sem-9/Thesis/Data/CodeForces/16/Correct/A64.c'
p26
F0.0
tp27
a(g1
S'/home/perseus/Sem-9/Thesis/Data/CodeForces/16/Correct/A13.c'
p28
F0.8780487804878049
tp29
a(g1
S'/home/perseus/Sem-9/Thesis/Data/CodeForces/16/Correct/A17.c'
p30
F0.0
tp31
a(g1
S'/home/perseus/Sem-9/Thesis/Data/CodeForces/16/Correct/A48.c'
p32
F0.7073170731707317
tp33
a(g1
S'/home/perseus/Sem-9/Thesis/Data/CodeForces/16/Correct/A36.c'
p34
F0.0
tp35
a(g1
S'/home/perseus/Sem-9/Thesis/Data/CodeForces/16/Correct/A28.c'
p36
I0
tp37
a(g1
S'/home/perseus/Sem-9/Thesis/Data/CodeForces/16/Correct/A4.c'
p38
I0
tp39
a(g1
S'/home/perseus/Sem-9/Thesis/Data/CodeForces/16/Correct/A29.c'
p40
F0.6585365853658537
tp41
a(g1
S'/home/perseus/Sem-9/Thesis/Data/CodeForces/16/Correct/A61.c'
p42
F0.7317073170731707
tp43
a(g1
S'/home/perseus/Sem-9/Thesis/Data/CodeForces/16/Correct/A5.c'
p44
F0.6585365853658537
tp45
a(g1
S'/home/perseus/Sem-9/Thesis/Data/CodeForces/16/Correct/A55.c'
p46
I0
tp47
a(g1
S'/home/perseus/Sem-9/Thesis/Data/CodeForces/16/Correct/A22.c'
p48
F0.5609756097560976
tp49
a(g1
S'/home/perseus/Sem-9/Thesis/Data/CodeForces/16/Correct/A68.c'
p50
F0.0
tp51
a(g1
S'/home/perseus/Sem-9/Thesis/Data/CodeForces/16/Correct/A69.c'
p52
F0.0
tp53
a(g1
S'/home/perseus/Sem-9/Thesis/Data/CodeForces/16/Correct/A14.c'
p54
F0.7560975609756098
tp55
a(g1
S'/home/perseus/Sem-9/Thesis/Data/CodeForces/16/Correct/A34.c'
p56
F0.0
tp57
a(g1
S'/home/perseus/Sem-9/Thesis/Data/CodeForces/16/Correct/A54.c'
p58
F0.6829268292682927
tp59
a(g1
S'/home/perseus/Sem-9/Thesis/Data/CodeForces/16/Correct/A9.c'
p60
F0.6829268292682927
tp61
a(g1
S'/home/perseus/Sem-9/Thesis/Data/CodeForces/16/Correct/A2.c'
p62
I0
tp63
a(g1
S'/home/perseus/Sem-9/Thesis/Data/CodeForces/16/Correct/A11.c'
p64
F0.6097560975609756
tp65
a(g1
S'/home/perseus/Sem-9/Thesis/Data/CodeForces/16/Correct/A25.c'
p66
F0.0
tp67
a(g1
S'/home/perseus/Sem-9/Thesis/Data/CodeForces/16/Correct/A45.c'
p68
F0.5365853658536586
tp69
a(g1
S'/home/perseus/Sem-9/Thesis/Data/CodeForces/16/Correct/A39.c'
p70
F0.7317073170731707
tp71
a(g1
S'/home/perseus/Sem-9/Thesis/Data/CodeForces/16/Correct/A10.c'
p72
F0.5121951219512195
tp73
a(g1
S'/home/perseus/Sem-9/Thesis/Data/CodeForces/16/Correct/A35.c'
p74
F0.7073170731707317
tp75
a(g1
S'/home/perseus/Sem-9/Thesis/Data/CodeForces/16/Correct/A53.c'
p76
F0.0
tp77
a(g1
S'/home/perseus/Sem-9/Thesis/Data/CodeForces/16/Correct/A65.c'
p78
F0.0
tp79
a(g1
S'/home/perseus/Sem-9/Thesis/Data/CodeForces/16/Correct/A31.c'
p80
I0
tp81
a(g1
S'/home/perseus/Sem-9/Thesis/Data/CodeForces/16/Correct/A49.c'
p82
F0.7804878048780488
tp83
a(g1
S'/home/perseus/Sem-9/Thesis/Data/CodeForces/16/Correct/A47.c'
p84
F0.0
tp85
a(g1
S'/home/perseus/Sem-9/Thesis/Data/CodeForces/16/Correct/A7.c'
p86
F0.6341463414634146
tp87
a(g1
S'/home/perseus/Sem-9/Thesis/Data/CodeForces/16/Correct/A12.c'
p88
F0.7073170731707317
tp89
a(g1
S'/home/perseus/Sem-9/Thesis/Data/CodeForces/16/Correct/A41.c'
p90
I0
tp91
a(g1
S'/home/perseus/Sem-9/Thesis/Data/CodeForces/16/Correct/A43.c'
p92
F0.8536585365853658
tp93
a(g1
S'/home/perseus/Sem-9/Thesis/Data/CodeForces/16/Correct/A67.c'
p94
F0.5609756097560976
tp95
a(g1
S'/home/perseus/Sem-9/Thesis/Data/CodeForces/16/Correct/A50.c'
p96
F0.8780487804878049
tp97
a(g1
S'/home/perseus/Sem-9/Thesis/Data/CodeForces/16/Correct/A38.c'
p98
F0.8292682926829268
tp99
a(g1
S'/home/perseus/Sem-9/Thesis/Data/CodeForces/16/Correct/A16.c'
p100
F0.5609756097560976
tp101
a(g1
S'/home/perseus/Sem-9/Thesis/Data/CodeForces/16/Correct/A32.c'
p102
I0
tp103
a(g1
S'/home/perseus/Sem-9/Thesis/Data/CodeForces/16/Correct/A18.c'
p104
F0.6829268292682927
tp105
a(g1
S'/home/perseus/Sem-9/Thesis/Data/CodeForces/16/Correct/A58.c'
p106
F0.6829268292682927
tp107
a(g1
S'/home/perseus/Sem-9/Thesis/Data/CodeForces/16/Correct/A51.c'
p108
F0.0
tp109
a(g1
S'/home/perseus/Sem-9/Thesis/Data/CodeForces/16/Correct/A23.c'
p110
F0.0
tp111
a(g1
S'/home/perseus/Sem-9/Thesis/Data/CodeForces/16/Correct/A60.c'
p112
F0.8292682926829268
tp113
a(g1
S'/home/perseus/Sem-9/Thesis/Data/CodeForces/16/Correct/A27.c'
p114
F0.5609756097560976
tp115
a(g1
S'/home/perseus/Sem-9/Thesis/Data/CodeForces/16/Correct/A33.c'
p116
I0
tp117
a(g1
S'/home/perseus/Sem-9/Thesis/Data/CodeForces/16/Correct/A62.c'
p118
I0
tp119
a(g1
S'/home/perseus/Sem-9/Thesis/Data/CodeForces/16/Correct/A46.c'
p120
F0.7073170731707317
tp121
a(g1
S'/home/perseus/Sem-9/Thesis/Data/CodeForces/16/Correct/A44.c'
p122
F0.8536585365853658
tp123
a(g1
S'/home/perseus/Sem-9/Thesis/Data/CodeForces/16/Correct/A8.c'
p124
F0.6829268292682927
tp125
a(g1
S'/home/perseus/Sem-9/Thesis/Data/CodeForces/16/Correct/A21.c'
p126
I0
tp127
a(g1
S'/home/perseus/Sem-9/Thesis/Data/CodeForces/16/Correct/A20.c'
p128
I0
tp129
a(g1
S'/home/perseus/Sem-9/Thesis/Data/CodeForces/16/Correct/A15.c'
p130
F0.5609756097560976
tp131
a(g1
S'/home/perseus/Sem-9/Thesis/Data/CodeForces/16/Correct/A42.c'
p132
F0.7073170731707317
tp133
a(g1
S'/home/perseus/Sem-9/Thesis/Data/CodeForces/16/Correct/A59.c'
p134
I0
tp135
a(g1
S'/home/perseus/Sem-9/Thesis/Data/CodeForces/16/Correct/A30.c'
p136
F0.5609756097560976
tp137
a(g2
g4
I0
tp138
a(g2
g6
I0
tp139
a(g2
g8
I0
tp140
a(g2
g10
I0
tp141
a(g2
g12
I0
tp142
a(g2
g14
I0
tp143
a(g2
g16
I0
tp144
a(g2
g18
I0
tp145
a(g2
g20
I0
tp146
a(g2
g22
I0
tp147
a(g2
g24
I0
tp148
a(g2
g26
I0
tp149
a(g2
g28
I0
tp150
a(g2
g30
I0
tp151
a(g2
g32
I0
tp152
a(g2
g34
I0
tp153
a(g2
g36
I0
tp154
a(g2
g38
I0
tp155
a(g2
g40
I0
tp156
a(g2
g42
I0
tp157
a(g2
g44
I0
tp158
a(g2
g46
I0
tp159
a(g2
g48
I0
tp160
a(g2
g50
I0
tp161
a(g2
g52
I0
tp162
a(g2
g54
I0
tp163
a(g2
g56
I0
tp164
a(g2
g58
I0
tp165
a(g2
g60
I0
tp166
a(g2
g62
I0
tp167
a(g2
g64
I0
tp168
a(g2
g66
I0
tp169
a(g2
g68
I0
tp170
a(g2
g70
I0
tp171
a(g2
g72
I0
tp172
a(g2
g74
I0
tp173
a(g2
g76
I0
tp174
a(g2
g78
I0
tp175
a(g2
g80
I0
tp176
a(g2
g82
I0
tp177
a(g2
g84
I0
tp178
a(g2
g86
I0
tp179
a(g2
g88
I0
tp180
a(g2
g90
I0
tp181
a(g2
g92
I0
tp182
a(g2
g94
I0
tp183
a(g2
g96
I0
tp184
a(g2
g98
I0
tp185
a(g2
g100
I0
tp186
a(g2
g102
I0
tp187
a(g2
g104
I0
tp188
a(g2
g106
I0
tp189
a(g2
g108
I0
tp190
a(g2
g110
I0
tp191
a(g2
g112
I0
tp192
a(g2
g114
I0
tp193
a(g2
g116
I0
tp194
a(g2
g118
I0
tp195
a(g2
g120
I0
tp196
a(g2
g122
I0
tp197
a(g2
g124
I0
tp198
a(g2
g126
I0
tp199
a(g2
g128
I0
tp200
a(g2
g130
I0
tp201
a(g2
g132
I0
tp202
a(g2
g134
I0
tp203
a(g2
g136
I0
tp204
a(g4
g6
I0
tp205
a(g4
g8
I0
tp206
a(g4
g10
I0
tp207
a(g4
g12
I0
tp208
a(g4
g14
I0
tp209
a(g4
g16
I0
tp210
a(g4
g18
I0
tp211
a(g4
g20
I0
tp212
a(g4
g22
I0
tp213
a(g4
g24
I0
tp214
a(g4
g26
I0
tp215
a(g4
g28
I0
tp216
a(g4
g30
I0
tp217
a(g4
g32
I0
tp218
a(g4
g34
I0
tp219
a(g4
g36
I0
tp220
a(g4
g38
I0
tp221
a(g4
g40
I0
tp222
a(g4
g42
I0
tp223
a(g4
g44
I0
tp224
a(g4
g46
I0
tp225
a(g4
g48
I0
tp226
a(g4
g50
I0
tp227
a(g4
g52
I0
tp228
a(g4
g54
I0
tp229
a(g4
g56
I0
tp230
a(g4
g58
I0
tp231
a(g4
g60
I0
tp232
a(g4
g62
I0
tp233
a(g4
g64
I0
tp234
a(g4
g66
I0
tp235
a(g4
g68
I0
tp236
a(g4
g70
I0
tp237
a(g4
g72
I0
tp238
a(g4
g74
I0
tp239
a(g4
g76
I0
tp240
a(g4
g78
I0
tp241
a(g4
g80
I0
tp242
a(g4
g82
I0
tp243
a(g4
g84
I0
tp244
a(g4
g86
I0
tp245
a(g4
g88
I0
tp246
a(g4
g90
I0
tp247
a(g4
g92
I0
tp248
a(g4
g94
I0
tp249
a(g4
g96
I0
tp250
a(g4
g98
I0
tp251
a(g4
g100
I0
tp252
a(g4
g102
I0
tp253
a(g4
g104
I0
tp254
a(g4
g106
I0
tp255
a(g4
g108
I0
tp256
a(g4
g110
I0
tp257
a(g4
g112
I0
tp258
a(g4
g114
I0
tp259
a(g4
g116
I0
tp260
a(g4
g118
I0
tp261
a(g4
g120
I0
tp262
a(g4
g122
I0
tp263
a(g4
g124
I0
tp264
a(g4
g126
I0
tp265
a(g4
g128
I0
tp266
a(g4
g130
I0
tp267
a(g4
g132
I0
tp268
a(g4
g134
I0
tp269
a(g4
g136
I0
tp270
a(g6
g8
I0
tp271
a(g6
g10
I0
tp272
a(g6
g12
I0
tp273
a(g6
g14
I0
tp274
a(g6
g16
I0
tp275
a(g6
g18
I0
tp276
a(g6
g20
I0
tp277
a(g6
g22
I0
tp278
a(g6
g24
I0
tp279
a(g6
g26
I0
tp280
a(g6
g28
I0
tp281
a(g6
g30
I0
tp282
a(g6
g32
I0
tp283
a(g6
g34
I0
tp284
a(g6
g36
I0
tp285
a(g6
g38
I0
tp286
a(g6
g40
I0
tp287
a(g6
g42
I0
tp288
a(g6
g44
I0
tp289
a(g6
g46
I0
tp290
a(g6
g48
I0
tp291
a(g6
g50
I0
tp292
a(g6
g52
I0
tp293
a(g6
g54
I0
tp294
a(g6
g56
I0
tp295
a(g6
g58
I0
tp296
a(g6
g60
I0
tp297
a(g6
g62
I0
tp298
a(g6
g64
I0
tp299
a(g6
g66
I0
tp300
a(g6
g68
I0
tp301
a(g6
g70
I0
tp302
a(g6
g72
I0
tp303
a(g6
g74
I0
tp304
a(g6
g76
I0
tp305
a(g6
g78
I0
tp306
a(g6
g80
I0
tp307
a(g6
g82
I0
tp308
a(g6
g84
I0
tp309
a(g6
g86
I0
tp310
a(g6
g88
I0
tp311
a(g6
g90
I0
tp312
a(g6
g92
I0
tp313
a(g6
g94
I0
tp314
a(g6
g96
I0
tp315
a(g6
g98
I0
tp316
a(g6
g100
I0
tp317
a(g6
g102
I0
tp318
a(g6
g104
I0
tp319
a(g6
g106
I0
tp320
a(g6
g108
I0
tp321
a(g6
g110
I0
tp322
a(g6
g112
I0
tp323
a(g6
g114
I0
tp324
a(g6
g116
I0
tp325
a(g6
g118
I0
tp326
a(g6
g120
I0
tp327
a(g6
g122
I0
tp328
a(g6
g124
I0
tp329
a(g6
g126
I0
tp330
a(g6
g128
I0
tp331
a(g6
g130
I0
tp332
a(g6
g132
I0
tp333
a(g6
g134
I0
tp334
a(g6
g136
I0
tp335
a(g8
g10
I0
tp336
a(g8
g12
I0
tp337
a(g8
g14
I0
tp338
a(g8
g16
I0
tp339
a(g8
g18
I0
tp340
a(g8
g20
I0
tp341
a(g8
g22
I0
tp342
a(g8
g24
I0
tp343
a(g8
g26
I0
tp344
a(g8
g28
I0
tp345
a(g8
g30
I0
tp346
a(g8
g32
I0
tp347
a(g8
g34
I0
tp348
a(g8
g36
I0
tp349
a(g8
g38
I0
tp350
a(g8
g40
I0
tp351
a(g8
g42
I0
tp352
a(g8
g44
I0
tp353
a(g8
g46
I0
tp354
a(g8
g48
I0
tp355
a(g8
g50
I0
tp356
a(g8
g52
I0
tp357
a(g8
g54
I0
tp358
a(g8
g56
I0
tp359
a(g8
g58
I0
tp360
a(g8
g60
I0
tp361
a(g8
g62
I0
tp362
a(g8
g64
I0
tp363
a(g8
g66
I0
tp364
a(g8
g68
I0
tp365
a(g8
g70
I0
tp366
a(g8
g72
I0
tp367
a(g8
g74
I0
tp368
a(g8
g76
I0
tp369
a(g8
g78
I0
tp370
a(g8
g80
I0
tp371
a(g8
g82
I0
tp372
a(g8
g84
I0
tp373
a(g8
g86
I0
tp374
a(g8
g88
I0
tp375
a(g8
g90
I0
tp376
a(g8
g92
I0
tp377
a(g8
g94
I0
tp378
a(g8
g96
I0
tp379
a(g8
g98
I0
tp380
a(g8
g100
I0
tp381
a(g8
g102
I0
tp382
a(g8
g104
I0
tp383
a(g8
g106
I0
tp384
a(g8
g108
I0
tp385
a(g8
g110
I0
tp386
a(g8
g112
I0
tp387
a(g8
g114
I0
tp388
a(g8
g116
I0
tp389
a(g8
g118
I0
tp390
a(g8
g120
I0
tp391
a(g8
g122
I0
tp392
a(g8
g124
I0
tp393
a(g8
g126
I0
tp394
a(g8
g128
I0
tp395
a(g8
g130
I0
tp396
a(g8
g132
I0
tp397
a(g8
g134
I0
tp398
a(g8
g136
I0
tp399
a(g10
g12
F0.0
tp400
a(g10
g14
I0
tp401
a(g10
g16
F0.0
tp402
a(g10
g18
F0.0
tp403
a(g10
g20
I0
tp404
a(g10
g22
I0
tp405
a(g10
g24
F0.0
tp406
a(g10
g26
F0.0
tp407
a(g10
g28
F0.0
tp408
a(g10
g30
F0.625
tp409
a(g10
g32
F0.0
tp410
a(g10
g34
F0.5681818181818182
tp411
a(g10
g36
I0
tp412
a(g10
g38
I0
tp413
a(g10
g40
F0.0
tp414
a(g10
g42
F0.0
tp415
a(g10
g44
F0.0
tp416
a(g10
g46
I0
tp417
a(g10
g48
F0.0
tp418
a(g10
g50
F0.8333333333333334
tp419
a(g10
g52
F0.0
tp420
a(g10
g54
F0.8064516129032258
tp421
a(g10
g56
F0.0
tp422
a(g10
g58
F0.0
tp423
a(g10
g60
F0.0
tp424
a(g10
g62
I0
tp425
a(g10
g64
F0.0
tp426
a(g10
g66
F0.6097560975609756
tp427
a(g10
g68
F0.0
tp428
a(g10
g70
F0.0
tp429
a(g10
g72
F0.0
tp430
a(g10
g74
F0.0
tp431
a(g10
g76
F0.78125
tp432
a(g10
g78
F0.78125
tp433
a(g10
g80
I0
tp434
a(g10
g82
F0.0
tp435
a(g10
g84
F0.0
tp436
a(g10
g86
F0.0
tp437
a(g10
g88
F0.8620689655172413
tp438
a(g10
g90
I0
tp439
a(g10
g92
F0.7142857142857143
tp440
a(g10
g94
F0.0
tp441
a(g10
g96
F0.0
tp442
a(g10
g98
F0.0
tp443
a(g10
g100
F0.0
tp444
a(g10
g102
I0
tp445
a(g10
g104
F0.0
tp446
a(g10
g106
F0.0
tp447
a(g10
g108
F0.5102040816326531
tp448
a(g10
g110
F0.6756756756756757
tp449
a(g10
g112
F0.0
tp450
a(g10
g114
F0.0
tp451
a(g10
g116
I0
tp452
a(g10
g118
I0
tp453
a(g10
g120
F0.0
tp454
a(g10
g122
F0.7142857142857143
tp455
a(g10
g124
F0.0
tp456
a(g10
g126
I0
tp457
a(g10
g128
I0
tp458
a(g10
g130
F0.0
tp459
a(g10
g132
F0.0
tp460
a(g10
g134
I0
tp461
a(g10
g136
F0.0
tp462
a(g12
g14
I0
tp463
a(g12
g16
F0.0
tp464
a(g12
g18
F0.0
tp465
a(g12
g20
I0
tp466
a(g12
g22
I0
tp467
a(g12
g24
F0.8571428571428571
tp468
a(g12
g26
F0.0
tp469
a(g12
g28
F0.6666666666666666
tp470
a(g12
g30
F0.6
tp471
a(g12
g32
F0.0
tp472
a(g12
g34
F0.5454545454545454
tp473
a(g12
g36
I0
tp474
a(g12
g38
I0
tp475
a(g12
g40
F0.0
tp476
a(g12
g42
F0.0
tp477
a(g12
g44
F0.0
tp478
a(g12
g46
I0
tp479
a(g12
g48
F0.0
tp480
a(g12
g50
F0.8
tp481
a(g12
g52
F0.0
tp482
a(g12
g54
F0.7741935483870968
tp483
a(g12
g56
F0.0
tp484
a(g12
g58
F0.8571428571428571
tp485
a(g12
g60
F0.0
tp486
a(g12
g62
I0
tp487
a(g12
g64
F0.0
tp488
a(g12
g66
F0.5853658536585366
tp489
a(g12
g68
F0.0
tp490
a(g12
g70
F0.0
tp491
a(g12
g72
F0.0
tp492
a(g12
g74
F0.0
tp493
a(g12
g76
F0.75
tp494
a(g12
g78
F0.75
tp495
a(g12
g80
I0
tp496
a(g12
g82
F0.0
tp497
a(g12
g84
F0.0
tp498
a(g12
g86
F0.0
tp499
a(g12
g88
F0.0
tp500
a(g12
g90
I0
tp501
a(g12
g92
F0.6857142857142857
tp502
a(g12
g94
F0.0
tp503
a(g12
g96
F0.0
tp504
a(g12
g98
F0.0
tp505
a(g12
g100
F0.0
tp506
a(g12
g102
I0
tp507
a(g12
g104
F0.8571428571428571
tp508
a(g12
g106
F0.8571428571428571
tp509
a(g12
g108
F0.4897959183673469
tp510
a(g12
g110
F0.6486486486486487
tp511
a(g12
g112
F0.0
tp512
a(g12
g114
F0.0
tp513
a(g12
g116
I0
tp514
a(g12
g118
I0
tp515
a(g12
g120
F0.0
tp516
a(g12
g122
F0.6857142857142857
tp517
a(g12
g124
F0.8571428571428571
tp518
a(g12
g126
I0
tp519
a(g12
g128
I0
tp520
a(g12
g130
F0.0
tp521
a(g12
g132
F0.0
tp522
a(g12
g134
I0
tp523
a(g12
g136
F0.0
tp524
a(g14
g16
I0
tp525
a(g14
g18
I0
tp526
a(g14
g20
I0
tp527
a(g14
g22
I0
tp528
a(g14
g24
I0
tp529
a(g14
g26
I0
tp530
a(g14
g28
I0
tp531
a(g14
g30
I0
tp532
a(g14
g32
I0
tp533
a(g14
g34
I0
tp534
a(g14
g36
I0
tp535
a(g14
g38
I0
tp536
a(g14
g40
I0
tp537
a(g14
g42
I0
tp538
a(g14
g44
I0
tp539
a(g14
g46
I0
tp540
a(g14
g48
I0
tp541
a(g14
g50
I0
tp542
a(g14
g52
I0
tp543
a(g14
g54
I0
tp544
a(g14
g56
I0
tp545
a(g14
g58
I0
tp546
a(g14
g60
I0
tp547
a(g14
g62
I0
tp548
a(g14
g64
I0
tp549
a(g14
g66
I0
tp550
a(g14
g68
I0
tp551
a(g14
g70
I0
tp552
a(g14
g72
I0
tp553
a(g14
g74
I0
tp554
a(g14
g76
I0
tp555
a(g14
g78
I0
tp556
a(g14
g80
I0
tp557
a(g14
g82
I0
tp558
a(g14
g84
I0
tp559
a(g14
g86
I0
tp560
a(g14
g88
I0
tp561
a(g14
g90
I0
tp562
a(g14
g92
I0
tp563
a(g14
g94
I0
tp564
a(g14
g96
I0
tp565
a(g14
g98
I0
tp566
a(g14
g100
I0
tp567
a(g14
g102
I0
tp568
a(g14
g104
I0
tp569
a(g14
g106
I0
tp570
a(g14
g108
I0
tp571
a(g14
g110
I0
tp572
a(g14
g112
I0
tp573
a(g14
g114
I0
tp574
a(g14
g116
I0
tp575
a(g14
g118
I0
tp576
a(g14
g120
I0
tp577
a(g14
g122
I0
tp578
a(g14
g124
I0
tp579
a(g14
g126
I0
tp580
a(g14
g128
I0
tp581
a(g14
g130
I0
tp582
a(g14
g132
I0
tp583
a(g14
g134
I0
tp584
a(g14
g136
I0
tp585
a(g16
g18
F0.0
tp586
a(g16
g20
I0
tp587
a(g16
g22
I0
tp588
a(g16
g24
F0.0
tp589
a(g16
g26
F0.0
tp590
a(g16
g28
F0.7222222222222222
tp591
a(g16
g30
F0.65
tp592
a(g16
g32
F0.0
tp593
a(g16
g34
F0.5909090909090909
tp594
a(g16
g36
I0
tp595
a(g16
g38
I0
tp596
a(g16
g40
F0.0
tp597
a(g16
g42
F0.0
tp598
a(g16
g44
F0.0
tp599
a(g16
g46
I0
tp600
a(g16
g48
F0.0
tp601
a(g16
g50
F0.8666666666666667
tp602
a(g16
g52
F0.0
tp603
a(g16
g54
F0.8387096774193549
tp604
a(g16
g56
F0.65
tp605
a(g16
g58
F0.0
tp606
a(g16
g60
F0.0
tp607
a(g16
g62
I0
tp608
a(g16
g64
F0.0
tp609
a(g16
g66
F0.6341463414634146
tp610
a(g16
g68
F0.0
tp611
a(g16
g70
F0.0
tp612
a(g16
g72
F0.0
tp613
a(g16
g74
F0.0
tp614
a(g16
g76
F0.8125
tp615
a(g16
g78
F0.8125
tp616
a(g16
g80
I0
tp617
a(g16
g82
F0.0
tp618
a(g16
g84
F0.6341463414634146
tp619
a(g16
g86
F0.0
tp620
a(g16
g88
F0.896551724137931
tp621
a(g16
g90
I0
tp622
a(g16
g92
F0.0
tp623
a(g16
g94
F0.0
tp624
a(g16
g96
F0.0
tp625
a(g16
g98
F0.0
tp626
a(g16
g100
F0.0
tp627
a(g16
g102
I0
tp628
a(g16
g104
F0.0
tp629
a(g16
g106
F0.0
tp630
a(g16
g108
F0.5306122448979592
tp631
a(g16
g110
F0.7027027027027027
tp632
a(g16
g112
F0.0
tp633
a(g16
g114
F0.0
tp634
a(g16
g116
I0
tp635
a(g16
g118
I0
tp636
a(g16
g120
F0.0
tp637
a(g16
g122
F0.0
tp638
a(g16
g124
F0.0
tp639
a(g16
g126
I0
tp640
a(g16
g128
I0
tp641
a(g16
g130
F0.0
tp642
a(g16
g132
F0.0
tp643
a(g16
g134
I0
tp644
a(g16
g136
F0.0
tp645
a(g18
g20
I0
tp646
a(g18
g22
I0
tp647
a(g18
g24
F0.0
tp648
a(g18
g26
F0.0
tp649
a(g18
g28
F0.0
tp650
a(g18
g30
F0.0
tp651
a(g18
g32
F0.0
tp652
a(g18
g34
F0.6363636363636364
tp653
a(g18
g36
I0
tp654
a(g18
g38
I0
tp655
a(g18
g40
F0.0
tp656
a(g18
g42
F0.0
tp657
a(g18
g44
F0.0
tp658
a(g18
g46
I0
tp659
a(g18
g48
F0.0
tp660
a(g18
g50
F0.0
tp661
a(g18
g52
F0.0
tp662
a(g18
g54
F0.0
tp663
a(g18
g56
F0.0
tp664
a(g18
g58
F0.0
tp665
a(g18
g60
F0.0
tp666
a(g18
g62
I0
tp667
a(g18
g64
F0.0
tp668
a(g18
g66
F0.0
tp669
a(g18
g68
F0.0
tp670
a(g18
g70
F0.0
tp671
a(g18
g72
F0.0
tp672
a(g18
g74
F0.0
tp673
a(g18
g76
F0.875
tp674
a(g18
g78
F0.875
tp675
a(g18
g80
I0
tp676
a(g18
g82
F0.0
tp677
a(g18
g84
F0.0
tp678
a(g18
g86
F0.0
tp679
a(g18
g88
F0.0
tp680
a(g18
g90
I0
tp681
a(g18
g92
F0.0
tp682
a(g18
g94
F0.0
tp683
a(g18
g96
F0.0
tp684
a(g18
g98
F0.0
tp685
a(g18
g100
F0.0
tp686
a(g18
g102
I0
tp687
a(g18
g104
F0.0
tp688
a(g18
g106
F0.0
tp689
a(g18
g108
F0.5714285714285714
tp690
a(g18
g110
F0.0
tp691
a(g18
g112
F0.0
tp692
a(g18
g114
F0.0
tp693
a(g18
g116
I0
tp694
a(g18
g118
I0
tp695
a(g18
g120
F0.0
tp696
a(g18
g122
F0.0
tp697
a(g18
g124
F0.0
tp698
a(g18
g126
I0
tp699
a(g18
g128
I0
tp700
a(g18
g130
F0.0
tp701
a(g18
g132
F0.0
tp702
a(g18
g134
I0
tp703
a(g18
g136
F0.0
tp704
a(g20
g22
I0
tp705
a(g20
g24
I0
tp706
a(g20
g26
I0
tp707
a(g20
g28
I0
tp708
a(g20
g30
I0
tp709
a(g20
g32
I0
tp710
a(g20
g34
I0
tp711
a(g20
g36
I0
tp712
a(g20
g38
I0
tp713
a(g20
g40
I0
tp714
a(g20
g42
I0
tp715
a(g20
g44
I0
tp716
a(g20
g46
I0
tp717
a(g20
g48
I0
tp718
a(g20
g50
I0
tp719
a(g20
g52
I0
tp720
a(g20
g54
I0
tp721
a(g20
g56
I0
tp722
a(g20
g58
I0
tp723
a(g20
g60
I0
tp724
a(g20
g62
I0
tp725
a(g20
g64
I0
tp726
a(g20
g66
I0
tp727
a(g20
g68
I0
tp728
a(g20
g70
I0
tp729
a(g20
g72
I0
tp730
a(g20
g74
I0
tp731
a(g20
g76
I0
tp732
a(g20
g78
I0
tp733
a(g20
g80
I0
tp734
a(g20
g82
I0
tp735
a(g20
g84
I0
tp736
a(g20
g86
I0
tp737
a(g20
g88
I0
tp738
a(g20
g90
I0
tp739
a(g20
g92
I0
tp740
a(g20
g94
I0
tp741
a(g20
g96
I0
tp742
a(g20
g98
I0
tp743
a(g20
g100
I0
tp744
a(g20
g102
I0
tp745
a(g20
g104
I0
tp746
a(g20
g106
I0
tp747
a(g20
g108
I0
tp748
a(g20
g110
I0
tp749
a(g20
g112
I0
tp750
a(g20
g114
I0
tp751
a(g20
g116
I0
tp752
a(g20
g118
I0
tp753
a(g20
g120
I0
tp754
a(g20
g122
I0
tp755
a(g20
g124
I0
tp756
a(g20
g126
I0
tp757
a(g20
g128
I0
tp758
a(g20
g130
I0
tp759
a(g20
g132
I0
tp760
a(g20
g134
I0
tp761
a(g20
g136
I0
tp762
a(g22
g24
I0
tp763
a(g22
g26
I0
tp764
a(g22
g28
I0
tp765
a(g22
g30
I0
tp766
a(g22
g32
I0
tp767
a(g22
g34
I0
tp768
a(g22
g36
I0
tp769
a(g22
g38
I0
tp770
a(g22
g40
I0
tp771
a(g22
g42
I0
tp772
a(g22
g44
I0
tp773
a(g22
g46
I0
tp774
a(g22
g48
I0
tp775
a(g22
g50
I0
tp776
a(g22
g52
I0
tp777
a(g22
g54
I0
tp778
a(g22
g56
I0
tp779
a(g22
g58
I0
tp780
a(g22
g60
I0
tp781
a(g22
g62
I0
tp782
a(g22
g64
I0
tp783
a(g22
g66
I0
tp784
a(g22
g68
I0
tp785
a(g22
g70
I0
tp786
a(g22
g72
I0
tp787
a(g22
g74
I0
tp788
a(g22
g76
I0
tp789
a(g22
g78
I0
tp790
a(g22
g80
I0
tp791
a(g22
g82
I0
tp792
a(g22
g84
I0
tp793
a(g22
g86
I0
tp794
a(g22
g88
I0
tp795
a(g22
g90
I0
tp796
a(g22
g92
I0
tp797
a(g22
g94
I0
tp798
a(g22
g96
I0
tp799
a(g22
g98
I0
tp800
a(g22
g100
I0
tp801
a(g22
g102
I0
tp802
a(g22
g104
I0
tp803
a(g22
g106
I0
tp804
a(g22
g108
I0
tp805
a(g22
g110
I0
tp806
a(g22
g112
I0
tp807
a(g22
g114
I0
tp808
a(g22
g116
I0
tp809
a(g22
g118
I0
tp810
a(g22
g120
I0
tp811
a(g22
g122
I0
tp812
a(g22
g124
I0
tp813
a(g22
g126
I0
tp814
a(g22
g128
I0
tp815
a(g22
g130
I0
tp816
a(g22
g132
I0
tp817
a(g22
g134
I0
tp818
a(g22
g136
I0
tp819
a(g24
g26
F0.0
tp820
a(g24
g28
F0.0
tp821
a(g24
g30
F0.0
tp822
a(g24
g32
F0.0
tp823
a(g24
g34
F0.0
tp824
a(g24
g36
I0
tp825
a(g24
g38
I0
tp826
a(g24
g40
F0.0
tp827
a(g24
g42
F0.0
tp828
a(g24
g44
F0.0
tp829
a(g24
g46
I0
tp830
a(g24
g48
F0.8214285714285714
tp831
a(g24
g50
F0.0
tp832
a(g24
g52
F0.0
tp833
a(g24
g54
F0.0
tp834
a(g24
g56
F0.0
tp835
a(g24
g58
F1.0
tp836
a(g24
g60
F0.0
tp837
a(g24
g62
I0
tp838
a(g24
g64
F0.0
tp839
a(g24
g66
F0.0
tp840
a(g24
g68
F0.0
tp841
a(g24
g70
F0.0
tp842
a(g24
g72
F0.75
tp843
a(g24
g74
F0.0
tp844
a(g24
g76
F0.875
tp845
a(g24
g78
F0.0
tp846
a(g24
g80
I0
tp847
a(g24
g82
F0.0
tp848
a(g24
g84
F0.0
tp849
a(g24
g86
F0.0
tp850
a(g24
g88
F0.0
tp851
a(g24
g90
I0
tp852
a(g24
g92
F0.0
tp853
a(g24
g94
F0.8214285714285714
tp854
a(g24
g96
F0.0
tp855
a(g24
g98
F0.0
tp856
a(g24
g100
F0.8214285714285714
tp857
a(g24
g102
I0
tp858
a(g24
g104
F1.0
tp859
a(g24
g106
F0.0
tp860
a(g24
g108
F0.0
tp861
a(g24
g110
F0.0
tp862
a(g24
g112
F0.0
tp863
a(g24
g114
F0.8214285714285714
tp864
a(g24
g116
I0
tp865
a(g24
g118
I0
tp866
a(g24
g120
F0.0
tp867
a(g24
g122
F0.0
tp868
a(g24
g124
F0.0
tp869
a(g24
g126
I0
tp870
a(g24
g128
I0
tp871
a(g24
g130
F0.8214285714285714
tp872
a(g24
g132
F0.0
tp873
a(g24
g134
I0
tp874
a(g24
g136
F0.8214285714285714
tp875
a(g26
g28
F0.0
tp876
a(g26
g30
F0.0
tp877
a(g26
g32
F0.0
tp878
a(g26
g34
F0.0
tp879
a(g26
g36
I0
tp880
a(g26
g38
I0
tp881
a(g26
g40
F0.0
tp882
a(g26
g42
F0.0
tp883
a(g26
g44
F0.0
tp884
a(g26
g46
I0
tp885
a(g26
g48
F0.0
tp886
a(g26
g50
F0.0
tp887
a(g26
g52
F0.0
tp888
a(g26
g54
F0.0
tp889
a(g26
g56
F0.0
tp890
a(g26
g58
F0.0
tp891
a(g26
g60
F0.0
tp892
a(g26
g62
I0
tp893
a(g26
g64
F0.0
tp894
a(g26
g66
F0.0
tp895
a(g26
g68
F0.0
tp896
a(g26
g70
F0.0
tp897
a(g26
g72
F0.0
tp898
a(g26
g74
F0.0
tp899
a(g26
g76
F0.0
tp900
a(g26
g78
F0.0
tp901
a(g26
g80
I0
tp902
a(g26
g82
F0.0
tp903
a(g26
g84
F0.0
tp904
a(g26
g86
F0.0
tp905
a(g26
g88
F0.0
tp906
a(g26
g90
I0
tp907
a(g26
g92
F0.0
tp908
a(g26
g94
F0.0
tp909
a(g26
g96
F0.0
tp910
a(g26
g98
F0.0
tp911
a(g26
g100
F0.0
tp912
a(g26
g102
I0
tp913
a(g26
g104
F0.0
tp914
a(g26
g106
F0.0
tp915
a(g26
g108
F0.0
tp916
a(g26
g110
F0.0
tp917
a(g26
g112
F0.0
tp918
a(g26
g114
F0.0
tp919
a(g26
g116
I0
tp920
a(g26
g118
I0
tp921
a(g26
g120
F0.0
tp922
a(g26
g122
F0.0
tp923
a(g26
g124
F0.0
tp924
a(g26
g126
I0
tp925
a(g26
g128
I0
tp926
a(g26
g130
F0.0
tp927
a(g26
g132
F0.0
tp928
a(g26
g134
I0
tp929
a(g26
g136
F0.0
tp930
a(g28
g30
F0.0
tp931
a(g28
g32
F0.0
tp932
a(g28
g34
F0.0
tp933
a(g28
g36
I0
tp934
a(g28
g38
I0
tp935
a(g28
g40
F0.0
tp936
a(g28
g42
F0.0
tp937
a(g28
g44
F0.0
tp938
a(g28
g46
I0
tp939
a(g28
g48
F0.6388888888888888
tp940
a(g28
g50
F0.0
tp941
a(g28
g52
F0.0
tp942
a(g28
g54
F0.0
tp943
a(g28
g56
F0.0
tp944
a(g28
g58
F0.0
tp945
a(g28
g60
F0.0
tp946
a(g28
g62
I0
tp947
a(g28
g64
F0.0
tp948
a(g28
g66
F0.0
tp949
a(g28
g68
F0.0
tp950
a(g28
g70
F0.0
tp951
a(g28
g72
F0.5833333333333334
tp952
a(g28
g74
F0.0
tp953
a(g28
g76
F0.0
tp954
a(g28
g78
F0.0
tp955
a(g28
g80
I0
tp956
a(g28
g82
F0.0
tp957
a(g28
g84
F0.0
tp958
a(g28
g86
F0.0
tp959
a(g28
g88
F0.0
tp960
a(g28
g90
I0
tp961
a(g28
g92
F0.0
tp962
a(g28
g94
F0.0
tp963
a(g28
g96
F0.0
tp964
a(g28
g98
F0.0
tp965
a(g28
g100
F0.0
tp966
a(g28
g102
I0
tp967
a(g28
g104
F0.0
tp968
a(g28
g106
F0.0
tp969
a(g28
g108
F0.7346938775510204
tp970
a(g28
g110
F0.0
tp971
a(g28
g112
F0.0
tp972
a(g28
g114
F0.6388888888888888
tp973
a(g28
g116
I0
tp974
a(g28
g118
I0
tp975
a(g28
g120
F0.0
tp976
a(g28
g122
F0.0
tp977
a(g28
g124
F0.0
tp978
a(g28
g126
I0
tp979
a(g28
g128
I0
tp980
a(g28
g130
F0.6388888888888888
tp981
a(g28
g132
F0.8055555555555556
tp982
a(g28
g134
I0
tp983
a(g28
g136
F0.0
tp984
a(g30
g32
F0.0
tp985
a(g30
g34
F0.0
tp986
a(g30
g36
I0
tp987
a(g30
g38
I0
tp988
a(g30
g40
F0.0
tp989
a(g30
g42
F0.0
tp990
a(g30
g44
F0.0
tp991
a(g30
g46
I0
tp992
a(g30
g48
F0.575
tp993
a(g30
g50
F0.0
tp994
a(g30
g52
F0.0
tp995
a(g30
g54
F0.0
tp996
a(g30
g56
F0.0
tp997
a(g30
g58
F0.0
tp998
a(g30
g60
F0.0
tp999
a(g30
g62
I0
tp1000
a(g30
g64
F0.625
tp1001
a(g30
g66
F0.0
tp1002
a(g30
g68
F0.0
tp1003
a(g30
g70
F0.75
tp1004
a(g30
g72
F0.525
tp1005
a(g30
g74
F0.0
tp1006
a(g30
g76
F0.0
tp1007
a(g30
g78
F0.0
tp1008
a(g30
g80
I0
tp1009
a(g30
g82
F0.0
tp1010
a(g30
g84
F0.0
tp1011
a(g30
g86
F0.0
tp1012
a(g30
g88
F0.0
tp1013
a(g30
g90
I0
tp1014
a(g30
g92
F0.0
tp1015
a(g30
g94
F0.575
tp1016
a(g30
g96
F0.0
tp1017
a(g30
g98
F0.0
tp1018
a(g30
g100
F0.575
tp1019
a(g30
g102
I0
tp1020
a(g30
g104
F0.0
tp1021
a(g30
g106
F0.0
tp1022
a(g30
g108
F0.0
tp1023
a(g30
g110
F0.0
tp1024
a(g30
g112
F0.0
tp1025
a(g30
g114
F0.575
tp1026
a(g30
g116
I0
tp1027
a(g30
g118
I0
tp1028
a(g30
g120
F0.0
tp1029
a(g30
g122
F0.0
tp1030
a(g30
g124
F0.0
tp1031
a(g30
g126
I0
tp1032
a(g30
g128
I0
tp1033
a(g30
g130
F0.575
tp1034
a(g30
g132
F0.725
tp1035
a(g30
g134
I0
tp1036
a(g30
g136
F0.575
tp1037
a(g32
g34
F0.0
tp1038
a(g32
g36
I0
tp1039
a(g32
g38
I0
tp1040
a(g32
g40
F0.0
tp1041
a(g32
g42
F0.0
tp1042
a(g32
g44
F0.0
tp1043
a(g32
g46
I0
tp1044
a(g32
g48
F0.0
tp1045
a(g32
g50
F0.0
tp1046
a(g32
g52
F0.0
tp1047
a(g32
g54
F0.9354838709677419
tp1048
a(g32
g56
F0.0
tp1049
a(g32
g58
F0.0
tp1050
a(g32
g60
F0.0
tp1051
a(g32
g62
I0
tp1052
a(g32
g64
F0.0
tp1053
a(g32
g66
F0.0
tp1054
a(g32
g68
F0.0
tp1055
a(g32
g70
F0.0
tp1056
a(g32
g72
F0.7241379310344828
tp1057
a(g32
g74
F0.0
tp1058
a(g32
g76
F0.90625
tp1059
a(g32
g78
F0.90625
tp1060
a(g32
g80
I0
tp1061
a(g32
g82
F0.0
tp1062
a(g32
g84
F0.0
tp1063
a(g32
g86
F0.0
tp1064
a(g32
g88
F0.0
tp1065
a(g32
g90
I0
tp1066
a(g32
g92
F0.0
tp1067
a(g32
g94
F0.0
tp1068
a(g32
g96
F0.0
tp1069
a(g32
g98
F0.0
tp1070
a(g32
g100
F0.0
tp1071
a(g32
g102
I0
tp1072
a(g32
g104
F0.0
tp1073
a(g32
g106
F0.0
tp1074
a(g32
g108
F0.5918367346938775
tp1075
a(g32
g110
F0.0
tp1076
a(g32
g112
F0.0
tp1077
a(g32
g114
F0.0
tp1078
a(g32
g116
I0
tp1079
a(g32
g118
I0
tp1080
a(g32
g120
F0.0
tp1081
a(g32
g122
F0.0
tp1082
a(g32
g124
F0.0
tp1083
a(g32
g126
I0
tp1084
a(g32
g128
I0
tp1085
a(g32
g130
F0.0
tp1086
a(g32
g132
F0.0
tp1087
a(g32
g134
I0
tp1088
a(g32
g136
F0.0
tp1089
a(g34
g36
I0
tp1090
a(g34
g38
I0
tp1091
a(g34
g40
F0.0
tp1092
a(g34
g42
F0.0
tp1093
a(g34
g44
F0.0
tp1094
a(g34
g46
I0
tp1095
a(g34
g48
F0.5227272727272727
tp1096
a(g34
g50
F0.0
tp1097
a(g34
g52
F0.6818181818181818
tp1098
a(g34
g54
F0.0
tp1099
a(g34
g56
F0.0
tp1100
a(g34
g58
F0.0
tp1101
a(g34
g60
F0.0
tp1102
a(g34
g62
I0
tp1103
a(g34
g64
F0.5681818181818182
tp1104
a(g34
g66
F0.0
tp1105
a(g34
g68
F0.5
tp1106
a(g34
g70
F0.6818181818181818
tp1107
a(g34
g72
F0.4772727272727273
tp1108
a(g34
g74
F0.6590909090909091
tp1109
a(g34
g76
F0.0
tp1110
a(g34
g78
F0.0
tp1111
a(g34
g80
I0
tp1112
a(g34
g82
F0.0
tp1113
a(g34
g84
F0.0
tp1114
a(g34
g86
F0.5909090909090909
tp1115
a(g34
g88
F0.0
tp1116
a(g34
g90
I0
tp1117
a(g34
g92
F0.0
tp1118
a(g34
g94
F0.5227272727272727
tp1119
a(g34
g96
F0.0
tp1120
a(g34
g98
F0.0
tp1121
a(g34
g100
F0.5227272727272727
tp1122
a(g34
g102
I0
tp1123
a(g34
g104
F0.0
tp1124
a(g34
g106
F0.0
tp1125
a(g34
g108
F0.0
tp1126
a(g34
g110
F0.0
tp1127
a(g34
g112
F0.7727272727272727
tp1128
a(g34
g114
F0.5227272727272727
tp1129
a(g34
g116
I0
tp1130
a(g34
g118
I0
tp1131
a(g34
g120
F0.6590909090909091
tp1132
a(g34
g122
F0.0
tp1133
a(g34
g124
F0.0
tp1134
a(g34
g126
I0
tp1135
a(g34
g128
I0
tp1136
a(g34
g130
F0.5227272727272727
tp1137
a(g34
g132
F0.6590909090909091
tp1138
a(g34
g134
I0
tp1139
a(g34
g136
F0.5227272727272727
tp1140
a(g36
g38
I0
tp1141
a(g36
g40
I0
tp1142
a(g36
g42
I0
tp1143
a(g36
g44
I0
tp1144
a(g36
g46
I0
tp1145
a(g36
g48
I0
tp1146
a(g36
g50
I0
tp1147
a(g36
g52
I0
tp1148
a(g36
g54
I0
tp1149
a(g36
g56
I0
tp1150
a(g36
g58
I0
tp1151
a(g36
g60
I0
tp1152
a(g36
g62
I0
tp1153
a(g36
g64
I0
tp1154
a(g36
g66
I0
tp1155
a(g36
g68
I0
tp1156
a(g36
g70
I0
tp1157
a(g36
g72
I0
tp1158
a(g36
g74
I0
tp1159
a(g36
g76
I0
tp1160
a(g36
g78
I0
tp1161
a(g36
g80
I0
tp1162
a(g36
g82
I0
tp1163
a(g36
g84
I0
tp1164
a(g36
g86
I0
tp1165
a(g36
g88
I0
tp1166
a(g36
g90
I0
tp1167
a(g36
g92
I0
tp1168
a(g36
g94
I0
tp1169
a(g36
g96
I0
tp1170
a(g36
g98
I0
tp1171
a(g36
g100
I0
tp1172
a(g36
g102
I0
tp1173
a(g36
g104
I0
tp1174
a(g36
g106
I0
tp1175
a(g36
g108
I0
tp1176
a(g36
g110
I0
tp1177
a(g36
g112
I0
tp1178
a(g36
g114
I0
tp1179
a(g36
g116
I0
tp1180
a(g36
g118
I0
tp1181
a(g36
g120
I0
tp1182
a(g36
g122
I0
tp1183
a(g36
g124
I0
tp1184
a(g36
g126
I0
tp1185
a(g36
g128
I0
tp1186
a(g36
g130
I0
tp1187
a(g36
g132
I0
tp1188
a(g36
g134
I0
tp1189
a(g36
g136
I0
tp1190
a(g38
g40
I0
tp1191
a(g38
g42
I0
tp1192
a(g38
g44
I0
tp1193
a(g38
g46
I0
tp1194
a(g38
g48
I0
tp1195
a(g38
g50
I0
tp1196
a(g38
g52
I0
tp1197
a(g38
g54
I0
tp1198
a(g38
g56
I0
tp1199
a(g38
g58
I0
tp1200
a(g38
g60
I0
tp1201
a(g38
g62
I0
tp1202
a(g38
g64
I0
tp1203
a(g38
g66
I0
tp1204
a(g38
g68
I0
tp1205
a(g38
g70
I0
tp1206
a(g38
g72
I0
tp1207
a(g38
g74
I0
tp1208
a(g38
g76
I0
tp1209
a(g38
g78
I0
tp1210
a(g38
g80
I0
tp1211
a(g38
g82
I0
tp1212
a(g38
g84
I0
tp1213
a(g38
g86
I0
tp1214
a(g38
g88
I0
tp1215
a(g38
g90
I0
tp1216
a(g38
g92
I0
tp1217
a(g38
g94
I0
tp1218
a(g38
g96
I0
tp1219
a(g38
g98
I0
tp1220
a(g38
g100
I0
tp1221
a(g38
g102
I0
tp1222
a(g38
g104
I0
tp1223
a(g38
g106
I0
tp1224
a(g38
g108
I0
tp1225
a(g38
g110
I0
tp1226
a(g38
g112
I0
tp1227
a(g38
g114
I0
tp1228
a(g38
g116
I0
tp1229
a(g38
g118
I0
tp1230
a(g38
g120
I0
tp1231
a(g38
g122
I0
tp1232
a(g38
g124
I0
tp1233
a(g38
g126
I0
tp1234
a(g38
g128
I0
tp1235
a(g38
g130
I0
tp1236
a(g38
g132
I0
tp1237
a(g38
g134
I0
tp1238
a(g38
g136
I0
tp1239
a(g40
g42
F0.0
tp1240
a(g40
g44
F1.0
tp1241
a(g40
g46
I0
tp1242
a(g40
g48
F0.8518518518518519
tp1243
a(g40
g50
F0.0
tp1244
a(g40
g52
F0.0
tp1245
a(g40
g54
F0.0
tp1246
a(g40
g56
F0.0
tp1247
a(g40
g58
F0.0
tp1248
a(g40
g60
F0.0
tp1249
a(g40
g62
I0
tp1250
a(g40
g64
F0.0
tp1251
a(g40
g66
F0.0
tp1252
a(g40
g68
F0.0
tp1253
a(g40
g70
F0.0
tp1254
a(g40
g72
F0.7777777777777778
tp1255
a(g40
g74
F0.0
tp1256
a(g40
g76
F0.0
tp1257
a(g40
g78
F0.0
tp1258
a(g40
g80
I0
tp1259
a(g40
g82
F0.0
tp1260
a(g40
g84
F0.0
tp1261
a(g40
g86
F0.0
tp1262
a(g40
g88
F0.0
tp1263
a(g40
g90
I0
tp1264
a(g40
g92
F0.0
tp1265
a(g40
g94
F0.8518518518518519
tp1266
a(g40
g96
F0.0
tp1267
a(g40
g98
F0.0
tp1268
a(g40
g100
F0.8518518518518519
tp1269
a(g40
g102
I0
tp1270
a(g40
g104
F0.0
tp1271
a(g40
g106
F0.0
tp1272
a(g40
g108
F0.5510204081632653
tp1273
a(g40
g110
F0.0
tp1274
a(g40
g112
F0.0
tp1275
a(g40
g114
F0.0
tp1276
a(g40
g116
I0
tp1277
a(g40
g118
I0
tp1278
a(g40
g120
F0.0
tp1279
a(g40
g122
F0.0
tp1280
a(g40
g124
F0.0
tp1281
a(g40
g126
I0
tp1282
a(g40
g128
I0
tp1283
a(g40
g130
F0.8518518518518519
tp1284
a(g40
g132
F0.0
tp1285
a(g40
g134
I0
tp1286
a(g40
g136
F0.8518518518518519
tp1287
a(g42
g44
F0.0
tp1288
a(g42
g46
I0
tp1289
a(g42
g48
F0.0
tp1290
a(g42
g50
F0.0
tp1291
a(g42
g52
F0.0
tp1292
a(g42
g54
F0.0
tp1293
a(g42
g56
F0.0
tp1294
a(g42
g58
F0.0
tp1295
a(g42
g60
F0.0
tp1296
a(g42
g62
I0
tp1297
a(g42
g64
F0.0
tp1298
a(g42
g66
F0.0
tp1299
a(g42
g68
F0.0
tp1300
a(g42
g70
F0.0
tp1301
a(g42
g72
F0.0
tp1302
a(g42
g74
F0.0
tp1303
a(g42
g76
F0.0
tp1304
a(g42
g78
F0.0
tp1305
a(g42
g80
I0
tp1306
a(g42
g82
F0.0
tp1307
a(g42
g84
F0.0
tp1308
a(g42
g86
F0.0
tp1309
a(g42
g88
F0.0
tp1310
a(g42
g90
I0
tp1311
a(g42
g92
F0.0
tp1312
a(g42
g94
F0.0
tp1313
a(g42
g96
F0.0
tp1314
a(g42
g98
F0.0
tp1315
a(g42
g100
F0.0
tp1316
a(g42
g102
I0
tp1317
a(g42
g104
F0.0
tp1318
a(g42
g106
F0.0
tp1319
a(g42
g108
F0.6122448979591837
tp1320
a(g42
g110
F0.0
tp1321
a(g42
g112
F0.0
tp1322
a(g42
g114
F0.0
tp1323
a(g42
g116
I0
tp1324
a(g42
g118
I0
tp1325
a(g42
g120
F0.0
tp1326
a(g42
g122
F0.0
tp1327
a(g42
g124
F0.0
tp1328
a(g42
g126
I0
tp1329
a(g42
g128
I0
tp1330
a(g42
g130
F0.0
tp1331
a(g42
g132
F0.0
tp1332
a(g42
g134
I0
tp1333
a(g42
g136
F0.0
tp1334
a(g44
g46
I0
tp1335
a(g44
g48
F0.8518518518518519
tp1336
a(g44
g50
F0.0
tp1337
a(g44
g52
F0.0
tp1338
a(g44
g54
F0.0
tp1339
a(g44
g56
F0.0
tp1340
a(g44
g58
F0.0
tp1341
a(g44
g60
F0.0
tp1342
a(g44
g62
I0
tp1343
a(g44
g64
F0.0
tp1344
a(g44
g66
F0.0
tp1345
a(g44
g68
F0.0
tp1346
a(g44
g70
F0.0
tp1347
a(g44
g72
F0.7777777777777778
tp1348
a(g44
g74
F0.0
tp1349
a(g44
g76
F0.0
tp1350
a(g44
g78
F0.0
tp1351
a(g44
g80
I0
tp1352
a(g44
g82
F0.0
tp1353
a(g44
g84
F0.0
tp1354
a(g44
g86
F0.0
tp1355
a(g44
g88
F0.0
tp1356
a(g44
g90
I0
tp1357
a(g44
g92
F0.0
tp1358
a(g44
g94
F0.8518518518518519
tp1359
a(g44
g96
F0.0
tp1360
a(g44
g98
F0.0
tp1361
a(g44
g100
F0.8518518518518519
tp1362
a(g44
g102
I0
tp1363
a(g44
g104
F0.0
tp1364
a(g44
g106
F0.0
tp1365
a(g44
g108
F0.5510204081632653
tp1366
a(g44
g110
F0.0
tp1367
a(g44
g112
F0.0
tp1368
a(g44
g114
F0.0
tp1369
a(g44
g116
I0
tp1370
a(g44
g118
I0
tp1371
a(g44
g120
F0.0
tp1372
a(g44
g122
F0.0
tp1373
a(g44
g124
F0.0
tp1374
a(g44
g126
I0
tp1375
a(g44
g128
I0
tp1376
a(g44
g130
F0.8518518518518519
tp1377
a(g44
g132
F0.0
tp1378
a(g44
g134
I0
tp1379
a(g44
g136
F0.8518518518518519
tp1380
a(g46
g48
I0
tp1381
a(g46
g50
I0
tp1382
a(g46
g52
I0
tp1383
a(g46
g54
I0
tp1384
a(g46
g56
I0
tp1385
a(g46
g58
I0
tp1386
a(g46
g60
I0
tp1387
a(g46
g62
I0
tp1388
a(g46
g64
I0
tp1389
a(g46
g66
I0
tp1390
a(g46
g68
I0
tp1391
a(g46
g70
I0
tp1392
a(g46
g72
I0
tp1393
a(g46
g74
I0
tp1394
a(g46
g76
I0
tp1395
a(g46
g78
I0
tp1396
a(g46
g80
I0
tp1397
a(g46
g82
I0
tp1398
a(g46
g84
I0
tp1399
a(g46
g86
I0
tp1400
a(g46
g88
I0
tp1401
a(g46
g90
I0
tp1402
a(g46
g92
I0
tp1403
a(g46
g94
I0
tp1404
a(g46
g96
I0
tp1405
a(g46
g98
I0
tp1406
a(g46
g100
I0
tp1407
a(g46
g102
I0
tp1408
a(g46
g104
I0
tp1409
a(g46
g106
I0
tp1410
a(g46
g108
I0
tp1411
a(g46
g110
I0
tp1412
a(g46
g112
I0
tp1413
a(g46
g114
I0
tp1414
a(g46
g116
I0
tp1415
a(g46
g118
I0
tp1416
a(g46
g120
I0
tp1417
a(g46
g122
I0
tp1418
a(g46
g124
I0
tp1419
a(g46
g126
I0
tp1420
a(g46
g128
I0
tp1421
a(g46
g130
I0
tp1422
a(g46
g132
I0
tp1423
a(g46
g134
I0
tp1424
a(g46
g136
I0
tp1425
a(g48
g50
F0.7666666666666667
tp1426
a(g48
g52
F0.0
tp1427
a(g48
g54
F0.7419354838709677
tp1428
a(g48
g56
F0.0
tp1429
a(g48
g58
F0.8214285714285714
tp1430
a(g48
g60
F0.0
tp1431
a(g48
g62
I0
tp1432
a(g48
g64
F0.92
tp1433
a(g48
g66
F0.5609756097560976
tp1434
a(g48
g68
F0.0
tp1435
a(g48
g70
F0.0
tp1436
a(g48
g72
F0.0
tp1437
a(g48
g74
F0.7931034482758621
tp1438
a(g48
g76
F0.71875
tp1439
a(g48
g78
F0.71875
tp1440
a(g48
g80
I0
tp1441
a(g48
g82
F0.71875
tp1442
a(g48
g84
F0.5609756097560976
tp1443
a(g48
g86
F0.8846153846153846
tp1444
a(g48
g88
F0.7931034482758621
tp1445
a(g48
g90
I0
tp1446
a(g48
g92
F0.6571428571428571
tp1447
a(g48
g94
F0.0
tp1448
a(g48
g96
F0.0
tp1449
a(g48
g98
F0.6764705882352942
tp1450
a(g48
g100
F0.0
tp1451
a(g48
g102
I0
tp1452
a(g48
g104
F0.8214285714285714
tp1453
a(g48
g106
F0.8214285714285714
tp1454
a(g48
g108
F0.46938775510204084
tp1455
a(g48
g110
F0.6216216216216216
tp1456
a(g48
g112
F0.0
tp1457
a(g48
g114
F0.0
tp1458
a(g48
g116
I0
tp1459
a(g48
g118
I0
tp1460
a(g48
g120
F0.7931034482758621
tp1461
a(g48
g122
F0.6571428571428571
tp1462
a(g48
g124
F0.8214285714285714
tp1463
a(g48
g126
I0
tp1464
a(g48
g128
I0
tp1465
a(g48
g130
F0.0
tp1466
a(g48
g132
F0.0
tp1467
a(g48
g134
I0
tp1468
a(g48
g136
F0.0
tp1469
a(g50
g52
F0.0
tp1470
a(g50
g54
F0.0
tp1471
a(g50
g56
F0.0
tp1472
a(g50
g58
F0.0
tp1473
a(g50
g60
F0.0
tp1474
a(g50
g62
I0
tp1475
a(g50
g64
F0.8333333333333334
tp1476
a(g50
g66
F0.0
tp1477
a(g50
g68
F0.7333333333333333
tp1478
a(g50
g70
F0.0
tp1479
a(g50
g72
F0.7
tp1480
a(g50
g74
F0.0
tp1481
a(g50
g76
F0.0
tp1482
a(g50
g78
F0.0
tp1483
a(g50
g80
I0
tp1484
a(g50
g82
F0.0
tp1485
a(g50
g84
F0.0
tp1486
a(g50
g86
F0.0
tp1487
a(g50
g88
F0.0
tp1488
a(g50
g90
I0
tp1489
a(g50
g92
F0.0
tp1490
a(g50
g94
F0.7666666666666667
tp1491
a(g50
g96
F0.0
tp1492
a(g50
g98
F0.0
tp1493
a(g50
g100
F0.7666666666666667
tp1494
a(g50
g102
I0
tp1495
a(g50
g104
F0.0
tp1496
a(g50
g106
F0.0
tp1497
a(g50
g108
F0.0
tp1498
a(g50
g110
F0.0
tp1499
a(g50
g112
F0.0
tp1500
a(g50
g114
F0.7666666666666667
tp1501
a(g50
g116
I0
tp1502
a(g50
g118
I0
tp1503
a(g50
g120
F0.0
tp1504
a(g50
g122
F0.0
tp1505
a(g50
g124
F0.0
tp1506
a(g50
g126
I0
tp1507
a(g50
g128
I0
tp1508
a(g50
g130
F0.7666666666666667
tp1509
a(g50
g132
F0.0
tp1510
a(g50
g134
I0
tp1511
a(g50
g136
F0.7666666666666667
tp1512
a(g52
g54
F0.0
tp1513
a(g52
g56
F0.0
tp1514
a(g52
g58
F0.0
tp1515
a(g52
g60
F0.0
tp1516
a(g52
g62
I0
tp1517
a(g52
g64
F0.0
tp1518
a(g52
g66
F0.0
tp1519
a(g52
g68
F0.0
tp1520
a(g52
g70
F0.0
tp1521
a(g52
g72
F0.0
tp1522
a(g52
g74
F0.0
tp1523
a(g52
g76
F0.0
tp1524
a(g52
g78
F0.0
tp1525
a(g52
g80
I0
tp1526
a(g52
g82
F0.0
tp1527
a(g52
g84
F0.0
tp1528
a(g52
g86
F0.0
tp1529
a(g52
g88
F0.0
tp1530
a(g52
g90
I0
tp1531
a(g52
g92
F0.0
tp1532
a(g52
g94
F0.0
tp1533
a(g52
g96
F0.0
tp1534
a(g52
g98
F0.0
tp1535
a(g52
g100
F0.0
tp1536
a(g52
g102
I0
tp1537
a(g52
g104
F0.0
tp1538
a(g52
g106
F0.0
tp1539
a(g52
g108
F0.0
tp1540
a(g52
g110
F0.0
tp1541
a(g52
g112
F0.0
tp1542
a(g52
g114
F0.0
tp1543
a(g52
g116
I0
tp1544
a(g52
g118
I0
tp1545
a(g52
g120
F0.0
tp1546
a(g52
g122
F0.0
tp1547
a(g52
g124
F0.0
tp1548
a(g52
g126
I0
tp1549
a(g52
g128
I0
tp1550
a(g52
g130
F0.0
tp1551
a(g52
g132
F0.0
tp1552
a(g52
g134
I0
tp1553
a(g52
g136
F0.0
tp1554
a(g54
g56
F0.0
tp1555
a(g54
g58
F0.0
tp1556
a(g54
g60
F0.0
tp1557
a(g54
g62
I0
tp1558
a(g54
g64
F0.8064516129032258
tp1559
a(g54
g66
F0.0
tp1560
a(g54
g68
F0.0
tp1561
a(g54
g70
F0.0
tp1562
a(g54
g72
F0.6774193548387096
tp1563
a(g54
g74
F0.9354838709677419
tp1564
a(g54
g76
F0.0
tp1565
a(g54
g78
F0.0
tp1566
a(g54
g80
I0
tp1567
a(g54
g82
F0.0
tp1568
a(g54
g84
F0.0
tp1569
a(g54
g86
F0.8387096774193549
tp1570
a(g54
g88
F0.0
tp1571
a(g54
g90
I0
tp1572
a(g54
g92
F0.0
tp1573
a(g54
g94
F0.7419354838709677
tp1574
a(g54
g96
F0.0
tp1575
a(g54
g98
F0.0
tp1576
a(g54
g100
F0.7419354838709677
tp1577
a(g54
g102
I0
tp1578
a(g54
g104
F0.0
tp1579
a(g54
g106
F0.0
tp1580
a(g54
g108
F0.0
tp1581
a(g54
g110
F0.0
tp1582
a(g54
g112
F0.0
tp1583
a(g54
g114
F0.7419354838709677
tp1584
a(g54
g116
I0
tp1585
a(g54
g118
I0
tp1586
a(g54
g120
F0.0
tp1587
a(g54
g122
F0.0
tp1588
a(g54
g124
F0.0
tp1589
a(g54
g126
I0
tp1590
a(g54
g128
I0
tp1591
a(g54
g130
F0.7419354838709677
tp1592
a(g54
g132
F0.0
tp1593
a(g54
g134
I0
tp1594
a(g54
g136
F0.7419354838709677
tp1595
a(g56
g58
F0.0
tp1596
a(g56
g60
F0.0
tp1597
a(g56
g62
I0
tp1598
a(g56
g64
F0.0
tp1599
a(g56
g66
F0.0
tp1600
a(g56
g68
F0.0
tp1601
a(g56
g70
F0.0
tp1602
a(g56
g72
F0.0
tp1603
a(g56
g74
F0.0
tp1604
a(g56
g76
F0.0
tp1605
a(g56
g78
F0.0
tp1606
a(g56
g80
I0
tp1607
a(g56
g82
F0.0
tp1608
a(g56
g84
F0.0
tp1609
a(g56
g86
F0.0
tp1610
a(g56
g88
F0.0
tp1611
a(g56
g90
I0
tp1612
a(g56
g92
F0.0
tp1613
a(g56
g94
F0.0
tp1614
a(g56
g96
F0.0
tp1615
a(g56
g98
F0.0
tp1616
a(g56
g100
F0.0
tp1617
a(g56
g102
I0
tp1618
a(g56
g104
F0.0
tp1619
a(g56
g106
F0.0
tp1620
a(g56
g108
F0.0
tp1621
a(g56
g110
F0.0
tp1622
a(g56
g112
F0.0
tp1623
a(g56
g114
F0.0
tp1624
a(g56
g116
I0
tp1625
a(g56
g118
I0
tp1626
a(g56
g120
F0.0
tp1627
a(g56
g122
F0.0
tp1628
a(g56
g124
F0.0
tp1629
a(g56
g126
I0
tp1630
a(g56
g128
I0
tp1631
a(g56
g130
F0.0
tp1632
a(g56
g132
F0.0
tp1633
a(g56
g134
I0
tp1634
a(g56
g136
F0.0
tp1635
a(g58
g60
F0.0
tp1636
a(g58
g62
I0
tp1637
a(g58
g64
F0.0
tp1638
a(g58
g66
F0.0
tp1639
a(g58
g68
F0.0
tp1640
a(g58
g70
F0.0
tp1641
a(g58
g72
F0.75
tp1642
a(g58
g74
F0.0
tp1643
a(g58
g76
F0.875
tp1644
a(g58
g78
F0.0
tp1645
a(g58
g80
I0
tp1646
a(g58
g82
F0.0
tp1647
a(g58
g84
F0.0
tp1648
a(g58
g86
F0.0
tp1649
a(g58
g88
F0.0
tp1650
a(g58
g90
I0
tp1651
a(g58
g92
F0.0
tp1652
a(g58
g94
F0.8214285714285714
tp1653
a(g58
g96
F0.0
tp1654
a(g58
g98
F0.0
tp1655
a(g58
g100
F0.8214285714285714
tp1656
a(g58
g102
I0
tp1657
a(g58
g104
F1.0
tp1658
a(g58
g106
F0.0
tp1659
a(g58
g108
F0.0
tp1660
a(g58
g110
F0.0
tp1661
a(g58
g112
F0.0
tp1662
a(g58
g114
F0.8214285714285714
tp1663
a(g58
g116
I0
tp1664
a(g58
g118
I0
tp1665
a(g58
g120
F0.0
tp1666
a(g58
g122
F0.0
tp1667
a(g58
g124
F0.0
tp1668
a(g58
g126
I0
tp1669
a(g58
g128
I0
tp1670
a(g58
g130
F0.8214285714285714
tp1671
a(g58
g132
F0.0
tp1672
a(g58
g134
I0
tp1673
a(g58
g136
F0.8214285714285714
tp1674
a(g60
g62
I0
tp1675
a(g60
g64
F0.0
tp1676
a(g60
g66
F0.0
tp1677
a(g60
g68
F0.0
tp1678
a(g60
g70
F0.0
tp1679
a(g60
g72
F0.0
tp1680
a(g60
g74
F0.0
tp1681
a(g60
g76
F0.875
tp1682
a(g60
g78
F0.875
tp1683
a(g60
g80
I0
tp1684
a(g60
g82
F0.0
tp1685
a(g60
g84
F0.0
tp1686
a(g60
g86
F0.0
tp1687
a(g60
g88
F0.0
tp1688
a(g60
g90
I0
tp1689
a(g60
g92
F0.0
tp1690
a(g60
g94
F0.0
tp1691
a(g60
g96
F0.0
tp1692
a(g60
g98
F0.0
tp1693
a(g60
g100
F0.0
tp1694
a(g60
g102
I0
tp1695
a(g60
g104
F0.0
tp1696
a(g60
g106
F0.0
tp1697
a(g60
g108
F0.5714285714285714
tp1698
a(g60
g110
F0.7567567567567568
tp1699
a(g60
g112
F0.0
tp1700
a(g60
g114
F0.0
tp1701
a(g60
g116
I0
tp1702
a(g60
g118
I0
tp1703
a(g60
g120
F0.0
tp1704
a(g60
g122
F0.0
tp1705
a(g60
g124
F0.0
tp1706
a(g60
g126
I0
tp1707
a(g60
g128
I0
tp1708
a(g60
g130
F0.0
tp1709
a(g60
g132
F0.0
tp1710
a(g60
g134
I0
tp1711
a(g60
g136
F0.0
tp1712
a(g62
g64
I0
tp1713
a(g62
g66
I0
tp1714
a(g62
g68
I0
tp1715
a(g62
g70
I0
tp1716
a(g62
g72
I0
tp1717
a(g62
g74
I0
tp1718
a(g62
g76
I0
tp1719
a(g62
g78
I0
tp1720
a(g62
g80
I0
tp1721
a(g62
g82
I0
tp1722
a(g62
g84
I0
tp1723
a(g62
g86
I0
tp1724
a(g62
g88
I0
tp1725
a(g62
g90
I0
tp1726
a(g62
g92
I0
tp1727
a(g62
g94
I0
tp1728
a(g62
g96
I0
tp1729
a(g62
g98
I0
tp1730
a(g62
g100
I0
tp1731
a(g62
g102
I0
tp1732
a(g62
g104
I0
tp1733
a(g62
g106
I0
tp1734
a(g62
g108
I0
tp1735
a(g62
g110
I0
tp1736
a(g62
g112
I0
tp1737
a(g62
g114
I0
tp1738
a(g62
g116
I0
tp1739
a(g62
g118
I0
tp1740
a(g62
g120
I0
tp1741
a(g62
g122
I0
tp1742
a(g62
g124
I0
tp1743
a(g62
g126
I0
tp1744
a(g62
g128
I0
tp1745
a(g62
g130
I0
tp1746
a(g62
g132
I0
tp1747
a(g62
g134
I0
tp1748
a(g62
g136
I0
tp1749
a(g64
g66
F0.0
tp1750
a(g64
g68
F0.0
tp1751
a(g64
g70
F0.0
tp1752
a(g64
g72
F0.0
tp1753
a(g64
g74
F0.0
tp1754
a(g64
g76
F0.78125
tp1755
a(g64
g78
F0.78125
tp1756
a(g64
g80
I0
tp1757
a(g64
g82
F0.0
tp1758
a(g64
g84
F0.0
tp1759
a(g64
g86
F0.0
tp1760
a(g64
g88
F0.0
tp1761
a(g64
g90
I0
tp1762
a(g64
g92
F0.0
tp1763
a(g64
g94
F0.0
tp1764
a(g64
g96
F0.0
tp1765
a(g64
g98
F0.0
tp1766
a(g64
g100
F0.0
tp1767
a(g64
g102
I0
tp1768
a(g64
g104
F0.0
tp1769
a(g64
g106
F0.0
tp1770
a(g64
g108
F0.5102040816326531
tp1771
a(g64
g110
F0.6756756756756757
tp1772
a(g64
g112
F0.0
tp1773
a(g64
g114
F0.0
tp1774
a(g64
g116
I0
tp1775
a(g64
g118
I0
tp1776
a(g64
g120
F0.0
tp1777
a(g64
g122
F0.0
tp1778
a(g64
g124
F0.0
tp1779
a(g64
g126
I0
tp1780
a(g64
g128
I0
tp1781
a(g64
g130
F0.0
tp1782
a(g64
g132
F0.0
tp1783
a(g64
g134
I0
tp1784
a(g64
g136
F0.0
tp1785
a(g66
g68
F0.0
tp1786
a(g66
g70
F0.0
tp1787
a(g66
g72
F0.0
tp1788
a(g66
g74
F0.0
tp1789
a(g66
g76
F0.0
tp1790
a(g66
g78
F0.0
tp1791
a(g66
g80
I0
tp1792
a(g66
g82
F0.0
tp1793
a(g66
g84
F0.0
tp1794
a(g66
g86
F0.0
tp1795
a(g66
g88
F0.0
tp1796
a(g66
g90
I0
tp1797
a(g66
g92
F0.0
tp1798
a(g66
g94
F0.0
tp1799
a(g66
g96
F0.0
tp1800
a(g66
g98
F0.0
tp1801
a(g66
g100
F0.0
tp1802
a(g66
g102
I0
tp1803
a(g66
g104
F0.0
tp1804
a(g66
g106
F0.0
tp1805
a(g66
g108
F0.0
tp1806
a(g66
g110
F0.0
tp1807
a(g66
g112
F0.0
tp1808
a(g66
g114
F0.0
tp1809
a(g66
g116
I0
tp1810
a(g66
g118
I0
tp1811
a(g66
g120
F0.0
tp1812
a(g66
g122
F0.0
tp1813
a(g66
g124
F0.0
tp1814
a(g66
g126
I0
tp1815
a(g66
g128
I0
tp1816
a(g66
g130
F0.5609756097560976
tp1817
a(g66
g132
F0.0
tp1818
a(g66
g134
I0
tp1819
a(g66
g136
F0.5609756097560976
tp1820
a(g68
g70
F0.0
tp1821
a(g68
g72
F0.0
tp1822
a(g68
g74
F0.0
tp1823
a(g68
g76
F0.0
tp1824
a(g68
g78
F0.0
tp1825
a(g68
g80
I0
tp1826
a(g68
g82
F0.0
tp1827
a(g68
g84
F0.0
tp1828
a(g68
g86
F0.0
tp1829
a(g68
g88
F0.0
tp1830
a(g68
g90
I0
tp1831
a(g68
g92
F0.0
tp1832
a(g68
g94
F0.0
tp1833
a(g68
g96
F0.0
tp1834
a(g68
g98
F0.0
tp1835
a(g68
g100
F0.0
tp1836
a(g68
g102
I0
tp1837
a(g68
g104
F0.0
tp1838
a(g68
g106
F0.0
tp1839
a(g68
g108
F0.4489795918367347
tp1840
a(g68
g110
F0.5945945945945946
tp1841
a(g68
g112
F0.0
tp1842
a(g68
g114
F0.0
tp1843
a(g68
g116
I0
tp1844
a(g68
g118
I0
tp1845
a(g68
g120
F0.0
tp1846
a(g68
g122
F0.0
tp1847
a(g68
g124
F0.0
tp1848
a(g68
g126
I0
tp1849
a(g68
g128
I0
tp1850
a(g68
g130
F0.0
tp1851
a(g68
g132
F0.0
tp1852
a(g68
g134
I0
tp1853
a(g68
g136
F0.0
tp1854
a(g70
g72
F0.0
tp1855
a(g70
g74
F0.0
tp1856
a(g70
g76
F0.0
tp1857
a(g70
g78
F0.0
tp1858
a(g70
g80
I0
tp1859
a(g70
g82
F0.0
tp1860
a(g70
g84
F0.0
tp1861
a(g70
g86
F0.0
tp1862
a(g70
g88
F0.0
tp1863
a(g70
g90
I0
tp1864
a(g70
g92
F0.0
tp1865
a(g70
g94
F0.0
tp1866
a(g70
g96
F0.0
tp1867
a(g70
g98
F0.0
tp1868
a(g70
g100
F0.0
tp1869
a(g70
g102
I0
tp1870
a(g70
g104
F0.0
tp1871
a(g70
g106
F0.0
tp1872
a(g70
g108
F0.6122448979591837
tp1873
a(g70
g110
F0.8108108108108109
tp1874
a(g70
g112
F0.0
tp1875
a(g70
g114
F0.0
tp1876
a(g70
g116
I0
tp1877
a(g70
g118
I0
tp1878
a(g70
g120
F0.0
tp1879
a(g70
g122
F0.0
tp1880
a(g70
g124
F0.0
tp1881
a(g70
g126
I0
tp1882
a(g70
g128
I0
tp1883
a(g70
g130
F0.0
tp1884
a(g70
g132
F0.0
tp1885
a(g70
g134
I0
tp1886
a(g70
g136
F0.0
tp1887
a(g72
g74
F0.7241379310344828
tp1888
a(g72
g76
F0.65625
tp1889
a(g72
g78
F0.65625
tp1890
a(g72
g80
I0
tp1891
a(g72
g82
F0.65625
tp1892
a(g72
g84
F0.5121951219512195
tp1893
a(g72
g86
F0.8076923076923077
tp1894
a(g72
g88
F0.7241379310344828
tp1895
a(g72
g90
I0
tp1896
a(g72
g92
F0.6
tp1897
a(g72
g94
F0.0
tp1898
a(g72
g96
F0.0
tp1899
a(g72
g98
F0.6176470588235294
tp1900
a(g72
g100
F0.0
tp1901
a(g72
g102
I0
tp1902
a(g72
g104
F0.75
tp1903
a(g72
g106
F0.75
tp1904
a(g72
g108
F0.42857142857142855
tp1905
a(g72
g110
F0.5675675675675675
tp1906
a(g72
g112
F0.0
tp1907
a(g72
g114
F0.0
tp1908
a(g72
g116
I0
tp1909
a(g72
g118
I0
tp1910
a(g72
g120
F0.7241379310344828
tp1911
a(g72
g122
F0.6
tp1912
a(g72
g124
F0.75
tp1913
a(g72
g126
I0
tp1914
a(g72
g128
I0
tp1915
a(g72
g130
F0.0
tp1916
a(g72
g132
F0.0
tp1917
a(g72
g134
I0
tp1918
a(g72
g136
F0.0
tp1919
a(g74
g76
F0.90625
tp1920
a(g74
g78
F0.90625
tp1921
a(g74
g80
I0
tp1922
a(g74
g82
F0.0
tp1923
a(g74
g84
F0.0
tp1924
a(g74
g86
F0.0
tp1925
a(g74
g88
F0.0
tp1926
a(g74
g90
I0
tp1927
a(g74
g92
F0.0
tp1928
a(g74
g94
F0.0
tp1929
a(g74
g96
F0.0
tp1930
a(g74
g98
F0.0
tp1931
a(g74
g100
F0.0
tp1932
a(g74
g102
I0
tp1933
a(g74
g104
F0.0
tp1934
a(g74
g106
F0.0
tp1935
a(g74
g108
F0.5918367346938775
tp1936
a(g74
g110
F0.7837837837837838
tp1937
a(g74
g112
F0.0
tp1938
a(g74
g114
F0.0
tp1939
a(g74
g116
I0
tp1940
a(g74
g118
I0
tp1941
a(g74
g120
F0.0
tp1942
a(g74
g122
F0.0
tp1943
a(g74
g124
F0.0
tp1944
a(g74
g126
I0
tp1945
a(g74
g128
I0
tp1946
a(g74
g130
F0.7931034482758621
tp1947
a(g74
g132
F0.0
tp1948
a(g74
g134
I0
tp1949
a(g74
g136
F0.0
tp1950
a(g76
g78
F0.0
tp1951
a(g76
g80
I0
tp1952
a(g76
g82
F0.0
tp1953
a(g76
g84
F0.0
tp1954
a(g76
g86
F0.8125
tp1955
a(g76
g88
F0.0
tp1956
a(g76
g90
I0
tp1957
a(g76
g92
F0.0
tp1958
a(g76
g94
F0.71875
tp1959
a(g76
g96
F0.0
tp1960
a(g76
g98
F0.0
tp1961
a(g76
g100
F0.71875
tp1962
a(g76
g102
I0
tp1963
a(g76
g104
F0.875
tp1964
a(g76
g106
F0.0
tp1965
a(g76
g108
F0.0
tp1966
a(g76
g110
F0.0
tp1967
a(g76
g112
F0.0
tp1968
a(g76
g114
F0.71875
tp1969
a(g76
g116
I0
tp1970
a(g76
g118
I0
tp1971
a(g76
g120
F0.90625
tp1972
a(g76
g122
F0.0
tp1973
a(g76
g124
F0.0
tp1974
a(g76
g126
I0
tp1975
a(g76
g128
I0
tp1976
a(g76
g130
F0.71875
tp1977
a(g76
g132
F0.0
tp1978
a(g76
g134
I0
tp1979
a(g76
g136
F0.71875
tp1980
a(g78
g80
I0
tp1981
a(g78
g82
F0.0
tp1982
a(g78
g84
F0.0
tp1983
a(g78
g86
F0.8125
tp1984
a(g78
g88
F0.0
tp1985
a(g78
g90
I0
tp1986
a(g78
g92
F0.0
tp1987
a(g78
g94
F0.71875
tp1988
a(g78
g96
F0.0
tp1989
a(g78
g98
F0.0
tp1990
a(g78
g100
F0.71875
tp1991
a(g78
g102
I0
tp1992
a(g78
g104
F0.0
tp1993
a(g78
g106
F0.0
tp1994
a(g78
g108
F0.0
tp1995
a(g78
g110
F0.0
tp1996
a(g78
g112
F0.0
tp1997
a(g78
g114
F0.71875
tp1998
a(g78
g116
I0
tp1999
a(g78
g118
I0
tp2000
a(g78
g120
F0.90625
tp2001
a(g78
g122
F0.0
tp2002
a(g78
g124
F0.0
tp2003
a(g78
g126
I0
tp2004
a(g78
g128
I0
tp2005
a(g78
g130
F0.71875
tp2006
a(g78
g132
F0.0
tp2007
a(g78
g134
I0
tp2008
a(g78
g136
F0.71875
tp2009
a(g80
g82
I0
tp2010
a(g80
g84
I0
tp2011
a(g80
g86
I0
tp2012
a(g80
g88
I0
tp2013
a(g80
g90
I0
tp2014
a(g80
g92
I0
tp2015
a(g80
g94
I0
tp2016
a(g80
g96
I0
tp2017
a(g80
g98
I0
tp2018
a(g80
g100
I0
tp2019
a(g80
g102
I0
tp2020
a(g80
g104
I0
tp2021
a(g80
g106
I0
tp2022
a(g80
g108
I0
tp2023
a(g80
g110
I0
tp2024
a(g80
g112
I0
tp2025
a(g80
g114
I0
tp2026
a(g80
g116
I0
tp2027
a(g80
g118
I0
tp2028
a(g80
g120
I0
tp2029
a(g80
g122
I0
tp2030
a(g80
g124
I0
tp2031
a(g80
g126
I0
tp2032
a(g80
g128
I0
tp2033
a(g80
g130
I0
tp2034
a(g80
g132
I0
tp2035
a(g80
g134
I0
tp2036
a(g80
g136
I0
tp2037
a(g82
g84
F0.0
tp2038
a(g82
g86
F0.0
tp2039
a(g82
g88
F0.0
tp2040
a(g82
g90
I0
tp2041
a(g82
g92
F0.0
tp2042
a(g82
g94
F0.0
tp2043
a(g82
g96
F0.0
tp2044
a(g82
g98
F0.0
tp2045
a(g82
g100
F0.0
tp2046
a(g82
g102
I0
tp2047
a(g82
g104
F0.0
tp2048
a(g82
g106
F0.0
tp2049
a(g82
g108
F0.0
tp2050
a(g82
g110
F0.0
tp2051
a(g82
g112
F0.0
tp2052
a(g82
g114
F0.71875
tp2053
a(g82
g116
I0
tp2054
a(g82
g118
I0
tp2055
a(g82
g120
F0.0
tp2056
a(g82
g122
F0.0
tp2057
a(g82
g124
F0.0
tp2058
a(g82
g126
I0
tp2059
a(g82
g128
I0
tp2060
a(g82
g130
F0.0
tp2061
a(g82
g132
F0.0
tp2062
a(g82
g134
I0
tp2063
a(g82
g136
F0.71875
tp2064
a(g84
g86
F0.0
tp2065
a(g84
g88
F0.0
tp2066
a(g84
g90
I0
tp2067
a(g84
g92
F0.0
tp2068
a(g84
g94
F0.0
tp2069
a(g84
g96
F0.0
tp2070
a(g84
g98
F0.0
tp2071
a(g84
g100
F0.0
tp2072
a(g84
g102
I0
tp2073
a(g84
g104
F0.0
tp2074
a(g84
g106
F0.0
tp2075
a(g84
g108
F0.0
tp2076
a(g84
g110
F0.0
tp2077
a(g84
g112
F0.0
tp2078
a(g84
g114
F0.5609756097560976
tp2079
a(g84
g116
I0
tp2080
a(g84
g118
I0
tp2081
a(g84
g120
F0.0
tp2082
a(g84
g122
F0.0
tp2083
a(g84
g124
F0.0
tp2084
a(g84
g126
I0
tp2085
a(g84
g128
I0
tp2086
a(g84
g130
F0.5609756097560976
tp2087
a(g84
g132
F0.0
tp2088
a(g84
g134
I0
tp2089
a(g84
g136
F0.0
tp2090
a(g86
g88
F0.0
tp2091
a(g86
g90
I0
tp2092
a(g86
g92
F0.0
tp2093
a(g86
g94
F0.0
tp2094
a(g86
g96
F0.0
tp2095
a(g86
g98
F0.0
tp2096
a(g86
g100
F0.8846153846153846
tp2097
a(g86
g102
I0
tp2098
a(g86
g104
F0.0
tp2099
a(g86
g106
F0.0
tp2100
a(g86
g108
F0.5306122448979592
tp2101
a(g86
g110
F0.7027027027027027
tp2102
a(g86
g112
F0.0
tp2103
a(g86
g114
F0.0
tp2104
a(g86
g116
I0
tp2105
a(g86
g118
I0
tp2106
a(g86
g120
F0.0
tp2107
a(g86
g122
F0.0
tp2108
a(g86
g124
F0.0
tp2109
a(g86
g126
I0
tp2110
a(g86
g128
I0
tp2111
a(g86
g130
F0.8846153846153846
tp2112
a(g86
g132
F0.0
tp2113
a(g86
g134
I0
tp2114
a(g86
g136
F0.8846153846153846
tp2115
a(g88
g90
I0
tp2116
a(g88
g92
F0.0
tp2117
a(g88
g94
F0.7931034482758621
tp2118
a(g88
g96
F0.0
tp2119
a(g88
g98
F0.0
tp2120
a(g88
g100
F0.0
tp2121
a(g88
g102
I0
tp2122
a(g88
g104
F0.0
tp2123
a(g88
g106
F0.0
tp2124
a(g88
g108
F0.0
tp2125
a(g88
g110
F0.0
tp2126
a(g88
g112
F0.0
tp2127
a(g88
g114
F0.0
tp2128
a(g88
g116
I0
tp2129
a(g88
g118
I0
tp2130
a(g88
g120
F0.0
tp2131
a(g88
g122
F0.0
tp2132
a(g88
g124
F0.0
tp2133
a(g88
g126
I0
tp2134
a(g88
g128
I0
tp2135
a(g88
g130
F0.7931034482758621
tp2136
a(g88
g132
F0.0
tp2137
a(g88
g134
I0
tp2138
a(g88
g136
F0.7931034482758621
tp2139
a(g90
g92
I0
tp2140
a(g90
g94
I0
tp2141
a(g90
g96
I0
tp2142
a(g90
g98
I0
tp2143
a(g90
g100
I0
tp2144
a(g90
g102
I0
tp2145
a(g90
g104
I0
tp2146
a(g90
g106
I0
tp2147
a(g90
g108
I0
tp2148
a(g90
g110
I0
tp2149
a(g90
g112
I0
tp2150
a(g90
g114
I0
tp2151
a(g90
g116
I0
tp2152
a(g90
g118
I0
tp2153
a(g90
g120
I0
tp2154
a(g90
g122
I0
tp2155
a(g90
g124
I0
tp2156
a(g90
g126
I0
tp2157
a(g90
g128
I0
tp2158
a(g90
g130
I0
tp2159
a(g90
g132
I0
tp2160
a(g90
g134
I0
tp2161
a(g90
g136
I0
tp2162
a(g92
g94
F0.0
tp2163
a(g92
g96
F0.0
tp2164
a(g92
g98
F0.0
tp2165
a(g92
g100
F0.6571428571428571
tp2166
a(g92
g102
I0
tp2167
a(g92
g104
F0.0
tp2168
a(g92
g106
F0.0
tp2169
a(g92
g108
F0.0
tp2170
a(g92
g110
F0.0
tp2171
a(g92
g112
F0.0
tp2172
a(g92
g114
F0.6571428571428571
tp2173
a(g92
g116
I0
tp2174
a(g92
g118
I0
tp2175
a(g92
g120
F0.8285714285714286
tp2176
a(g92
g122
F1.0
tp2177
a(g92
g124
F0.0
tp2178
a(g92
g126
I0
tp2179
a(g92
g128
I0
tp2180
a(g92
g130
F0.6571428571428571
tp2181
a(g92
g132
F0.0
tp2182
a(g92
g134
I0
tp2183
a(g92
g136
F0.6571428571428571
tp2184
a(g94
g96
F0.0
tp2185
a(g94
g98
F0.0
tp2186
a(g94
g100
F0.0
tp2187
a(g94
g102
I0
tp2188
a(g94
g104
F0.8214285714285714
tp2189
a(g94
g106
F0.0
tp2190
a(g94
g108
F0.46938775510204084
tp2191
a(g94
g110
F0.6216216216216216
tp2192
a(g94
g112
F0.0
tp2193
a(g94
g114
F0.0
tp2194
a(g94
g116
I0
tp2195
a(g94
g118
I0
tp2196
a(g94
g120
F0.0
tp2197
a(g94
g122
F0.0
tp2198
a(g94
g124
F0.0
tp2199
a(g94
g126
I0
tp2200
a(g94
g128
I0
tp2201
a(g94
g130
F0.0
tp2202
a(g94
g132
F0.0
tp2203
a(g94
g134
I0
tp2204
a(g94
g136
F0.0
tp2205
a(g96
g98
F0.0
tp2206
a(g96
g100
F0.6388888888888888
tp2207
a(g96
g102
I0
tp2208
a(g96
g104
F0.0
tp2209
a(g96
g106
F0.0
tp2210
a(g96
g108
F0.7346938775510204
tp2211
a(g96
g110
F0.0
tp2212
a(g96
g112
F0.0
tp2213
a(g96
g114
F0.6388888888888888
tp2214
a(g96
g116
I0
tp2215
a(g96
g118
I0
tp2216
a(g96
g120
F0.0
tp2217
a(g96
g122
F0.0
tp2218
a(g96
g124
F0.0
tp2219
a(g96
g126
I0
tp2220
a(g96
g128
I0
tp2221
a(g96
g130
F0.0
tp2222
a(g96
g132
F0.0
tp2223
a(g96
g134
I0
tp2224
a(g96
g136
F0.0
tp2225
a(g98
g100
F0.6764705882352942
tp2226
a(g98
g102
I0
tp2227
a(g98
g104
F0.0
tp2228
a(g98
g106
F0.0
tp2229
a(g98
g108
F0.6938775510204082
tp2230
a(g98
g110
F0.0
tp2231
a(g98
g112
F0.0
tp2232
a(g98
g114
F0.0
tp2233
a(g98
g116
I0
tp2234
a(g98
g118
I0
tp2235
a(g98
g120
F0.0
tp2236
a(g98
g122
F0.0
tp2237
a(g98
g124
F0.0
tp2238
a(g98
g126
I0
tp2239
a(g98
g128
I0
tp2240
a(g98
g130
F0.6764705882352942
tp2241
a(g98
g132
F0.0
tp2242
a(g98
g134
I0
tp2243
a(g98
g136
F0.0
tp2244
a(g100
g102
I0
tp2245
a(g100
g104
F0.8214285714285714
tp2246
a(g100
g106
F0.0
tp2247
a(g100
g108
F0.46938775510204084
tp2248
a(g100
g110
F0.6216216216216216
tp2249
a(g100
g112
F0.0
tp2250
a(g100
g114
F0.0
tp2251
a(g100
g116
I0
tp2252
a(g100
g118
I0
tp2253
a(g100
g120
F0.0
tp2254
a(g100
g122
F0.6571428571428571
tp2255
a(g100
g124
F0.0
tp2256
a(g100
g126
I0
tp2257
a(g100
g128
I0
tp2258
a(g100
g130
F0.0
tp2259
a(g100
g132
F0.0
tp2260
a(g100
g134
I0
tp2261
a(g100
g136
F0.0
tp2262
a(g102
g104
I0
tp2263
a(g102
g106
I0
tp2264
a(g102
g108
I0
tp2265
a(g102
g110
I0
tp2266
a(g102
g112
I0
tp2267
a(g102
g114
I0
tp2268
a(g102
g116
I0
tp2269
a(g102
g118
I0
tp2270
a(g102
g120
I0
tp2271
a(g102
g122
I0
tp2272
a(g102
g124
I0
tp2273
a(g102
g126
I0
tp2274
a(g102
g128
I0
tp2275
a(g102
g130
I0
tp2276
a(g102
g132
I0
tp2277
a(g102
g134
I0
tp2278
a(g102
g136
I0
tp2279
a(g104
g106
F0.0
tp2280
a(g104
g108
F0.0
tp2281
a(g104
g110
F0.0
tp2282
a(g104
g112
F0.0
tp2283
a(g104
g114
F0.8214285714285714
tp2284
a(g104
g116
I0
tp2285
a(g104
g118
I0
tp2286
a(g104
g120
F0.0
tp2287
a(g104
g122
F0.0
tp2288
a(g104
g124
F0.0
tp2289
a(g104
g126
I0
tp2290
a(g104
g128
I0
tp2291
a(g104
g130
F0.8214285714285714
tp2292
a(g104
g132
F0.0
tp2293
a(g104
g134
I0
tp2294
a(g104
g136
F0.8214285714285714
tp2295
a(g106
g108
F0.5714285714285714
tp2296
a(g106
g110
F0.0
tp2297
a(g106
g112
F0.0
tp2298
a(g106
g114
F0.8214285714285714
tp2299
a(g106
g116
I0
tp2300
a(g106
g118
I0
tp2301
a(g106
g120
F0.0
tp2302
a(g106
g122
F0.0
tp2303
a(g106
g124
F1.0
tp2304
a(g106
g126
I0
tp2305
a(g106
g128
I0
tp2306
a(g106
g130
F0.8214285714285714
tp2307
a(g106
g132
F0.0
tp2308
a(g106
g134
I0
tp2309
a(g106
g136
F0.0
tp2310
a(g108
g110
F0.0
tp2311
a(g108
g112
F0.6938775510204082
tp2312
a(g108
g114
F0.46938775510204084
tp2313
a(g108
g116
I0
tp2314
a(g108
g118
I0
tp2315
a(g108
g120
F0.5918367346938775
tp2316
a(g108
g122
F0.0
tp2317
a(g108
g124
F0.5714285714285714
tp2318
a(g108
g126
I0
tp2319
a(g108
g128
I0
tp2320
a(g108
g130
F0.46938775510204084
tp2321
a(g108
g132
F0.5918367346938775
tp2322
a(g108
g134
I0
tp2323
a(g108
g136
F0.46938775510204084
tp2324
a(g110
g112
F0.0
tp2325
a(g110
g114
F0.6216216216216216
tp2326
a(g110
g116
I0
tp2327
a(g110
g118
I0
tp2328
a(g110
g120
F0.0
tp2329
a(g110
g122
F0.0
tp2330
a(g110
g124
F0.0
tp2331
a(g110
g126
I0
tp2332
a(g110
g128
I0
tp2333
a(g110
g130
F0.6216216216216216
tp2334
a(g110
g132
F0.7837837837837838
tp2335
a(g110
g134
I0
tp2336
a(g110
g136
F0.6216216216216216
tp2337
a(g112
g114
F0.0
tp2338
a(g112
g116
I0
tp2339
a(g112
g118
I0
tp2340
a(g112
g120
F0.0
tp2341
a(g112
g122
F0.0
tp2342
a(g112
g124
F0.0
tp2343
a(g112
g126
I0
tp2344
a(g112
g128
I0
tp2345
a(g112
g130
F0.0
tp2346
a(g112
g132
F0.0
tp2347
a(g112
g134
I0
tp2348
a(g112
g136
F0.0
tp2349
a(g114
g116
I0
tp2350
a(g114
g118
I0
tp2351
a(g114
g120
F0.7931034482758621
tp2352
a(g114
g122
F0.6571428571428571
tp2353
a(g114
g124
F0.8214285714285714
tp2354
a(g114
g126
I0
tp2355
a(g114
g128
I0
tp2356
a(g114
g130
F0.0
tp2357
a(g114
g132
F0.0
tp2358
a(g114
g134
I0
tp2359
a(g114
g136
F0.0
tp2360
a(g116
g118
I0
tp2361
a(g116
g120
I0
tp2362
a(g116
g122
I0
tp2363
a(g116
g124
I0
tp2364
a(g116
g126
I0
tp2365
a(g116
g128
I0
tp2366
a(g116
g130
I0
tp2367
a(g116
g132
I0
tp2368
a(g116
g134
I0
tp2369
a(g116
g136
I0
tp2370
a(g118
g120
I0
tp2371
a(g118
g122
I0
tp2372
a(g118
g124
I0
tp2373
a(g118
g126
I0
tp2374
a(g118
g128
I0
tp2375
a(g118
g130
I0
tp2376
a(g118
g132
I0
tp2377
a(g118
g134
I0
tp2378
a(g118
g136
I0
tp2379
a(g120
g122
F0.8285714285714286
tp2380
a(g120
g124
F0.0
tp2381
a(g120
g126
I0
tp2382
a(g120
g128
I0
tp2383
a(g120
g130
F0.0
tp2384
a(g120
g132
F0.0
tp2385
a(g120
g134
I0
tp2386
a(g120
g136
F0.0
tp2387
a(g122
g124
F0.0
tp2388
a(g122
g126
I0
tp2389
a(g122
g128
I0
tp2390
a(g122
g130
F0.6571428571428571
tp2391
a(g122
g132
F0.0
tp2392
a(g122
g134
I0
tp2393
a(g122
g136
F0.6571428571428571
tp2394
a(g124
g126
I0
tp2395
a(g124
g128
I0
tp2396
a(g124
g130
F0.8214285714285714
tp2397
a(g124
g132
F0.0
tp2398
a(g124
g134
I0
tp2399
a(g124
g136
F0.0
tp2400
a(g126
g128
I0
tp2401
a(g126
g130
I0
tp2402
a(g126
g132
I0
tp2403
a(g126
g134
I0
tp2404
a(g126
g136
I0
tp2405
a(g128
g130
I0
tp2406
a(g128
g132
I0
tp2407
a(g128
g134
I0
tp2408
a(g128
g136
I0
tp2409
a(g130
g132
F0.0
tp2410
a(g130
g134
I0
tp2411
a(g130
g136
F0.0
tp2412
a(g132
g134
I0
tp2413
a(g132
g136
F0.0
tp2414
a(g134
g136
I0
tp2415
a.(lp0
(lp1
S'/home/perseus/Sem-9/Thesis/Data/CodeForces/16/Correct/A11.c'
p2
aS'/home/perseus/Sem-9/Thesis/Data/CodeForces/16/Correct/A17.c'
p3
aS'/home/perseus/Sem-9/Thesis/Data/CodeForces/16/Correct/A47.c'
p4
aS'/home/perseus/Sem-9/Thesis/Data/CodeForces/16/Correct/A34.c'
p5
aS'/home/perseus/Sem-9/Thesis/Data/CodeForces/16/Correct/A12.c'
p6
aS'/home/perseus/Sem-9/Thesis/Data/CodeForces/16/Correct/A25.c'
p7
aS'/home/perseus/Sem-9/Thesis/Data/CodeForces/16/Correct/A40.c'
p8
aS'/home/perseus/Sem-9/Thesis/Data/CodeForces/16/Correct/A22.c'
p9
aS'/home/perseus/Sem-9/Thesis/Data/CodeForces/16/Correct/A5.c'
p10
aS'/home/perseus/Sem-9/Thesis/Data/CodeForces/16/Correct/A67.c'
p11
aS'/home/perseus/Sem-9/Thesis/Data/CodeForces/16/Correct/A29.c'
p12
aS'/home/perseus/Sem-9/Thesis/Data/CodeForces/16/Correct/A68.c'
p13
aS'/home/perseus/Sem-9/Thesis/Data/CodeForces/16/Correct/A30.c'
p14
aa(lp15
S'/home/perseus/Sem-9/Thesis/Data/CodeForces/16/Correct/A16.c'
p16
aS'/home/perseus/Sem-9/Thesis/Data/CodeForces/16/Correct/A13.c'
p17
aS'/home/perseus/Sem-9/Thesis/Data/CodeForces/16/Correct/A50.c'
p18
aS'/home/perseus/Sem-9/Thesis/Data/CodeForces/16/Correct/A23.c'
p19
aS'/home/perseus/Sem-9/Thesis/Data/CodeForces/16/Correct/A69.c'
p20
aS'/home/perseus/Sem-9/Thesis/Data/CodeForces/16/Correct/A6.c'
p21
aS'/home/perseus/Sem-9/Thesis/Data/CodeForces/16/Correct/A42.c'
p22
aS'/home/perseus/Sem-9/Thesis/Data/CodeForces/16/Correct/A38.c'
p23
aS'/home/perseus/Sem-9/Thesis/Data/CodeForces/16/Correct/A61.c'
p24
aS'/home/perseus/Sem-9/Thesis/Data/CodeForces/16/Correct/A39.c'
p25
aS'/home/perseus/Sem-9/Thesis/Data/CodeForces/16/Correct/A51.c'
p26
aS'/home/perseus/Sem-9/Thesis/Data/CodeForces/16/Correct/A60.c'
p27
aS'/home/perseus/Sem-9/Thesis/Data/CodeForces/16/Correct/A49.c'
p28
aS'/home/perseus/Sem-9/Thesis/Data/CodeForces/16/Correct/A36.c'
p29
aS'/home/perseus/Sem-9/Thesis/Data/CodeForces/16/Correct/A19.c'
p30
aS'/home/perseus/Sem-9/Thesis/Data/CodeForces/16/Correct/A45.c'
p31
aS'/home/perseus/Sem-9/Thesis/Data/CodeForces/16/Correct/A9.c'
p32
aa(lp33
S'/home/perseus/Sem-9/Thesis/Data/CodeForces/16/Correct/A14.c'
p34
aS'/home/perseus/Sem-9/Thesis/Data/CodeForces/16/Correct/A10.c'
p35
aS'/home/perseus/Sem-9/Thesis/Data/CodeForces/16/Correct/A48.c'
p36
aS'/home/perseus/Sem-9/Thesis/Data/CodeForces/16/Correct/A65.c'
p37
aS'/home/perseus/Sem-9/Thesis/Data/CodeForces/16/Correct/A7.c'
p38
aS'/home/perseus/Sem-9/Thesis/Data/CodeForces/16/Correct/A35.c'
p39
aa(lp40
S'/home/perseus/Sem-9/Thesis/Data/CodeForces/16/Correct/A59.c'
p41
aa(lp42
S'/home/perseus/Sem-9/Thesis/Data/CodeForces/16/Correct/A70.c'
p43
aa(lp44
S'/home/perseus/Sem-9/Thesis/Data/CodeForces/16/Correct/A20.c'
p45
aa(lp46
S'/home/perseus/Sem-9/Thesis/Data/CodeForces/16/Correct/A21.c'
p47
aa(lp48
S'/home/perseus/Sem-9/Thesis/Data/CodeForces/16/Correct/A64.c'
p49
aa(lp50
S'/home/perseus/Sem-9/Thesis/Data/CodeForces/16/Correct/A41.c'
p51
aa(lp52
S'/home/perseus/Sem-9/Thesis/Data/CodeForces/16/Correct/A66.c'
p53
aS'/home/perseus/Sem-9/Thesis/Data/CodeForces/16/Correct/A58.c'
p54
aS'/home/perseus/Sem-9/Thesis/Data/CodeForces/16/Correct/A8.c'
p55
aS'/home/perseus/Sem-9/Thesis/Data/CodeForces/16/Correct/A54.c'
p56
aS'/home/perseus/Sem-9/Thesis/Data/CodeForces/16/Correct/A15.c'
p57
aS'/home/perseus/Sem-9/Thesis/Data/CodeForces/16/Correct/A57.c'
p58
aS'/home/perseus/Sem-9/Thesis/Data/CodeForces/16/Correct/A27.c'
p59
aS'/home/perseus/Sem-9/Thesis/Data/CodeForces/16/Correct/A53.c'
p60
aS'/home/perseus/Sem-9/Thesis/Data/CodeForces/16/Correct/A18.c'
p61
aa(lp62
S'/home/perseus/Sem-9/Thesis/Data/CodeForces/16/Correct/A56.c'
p63
aa(lp64
S'/home/perseus/Sem-9/Thesis/Data/CodeForces/16/Correct/A1.c'
p65
aa(lp66
S'/home/perseus/Sem-9/Thesis/Data/CodeForces/16/Correct/A63.c'
p67
aa(lp68
S'/home/perseus/Sem-9/Thesis/Data/CodeForces/16/Correct/A52.c'
p69
aS'/home/perseus/Sem-9/Thesis/Data/CodeForces/16/Correct/A44.c'
p70
aS'/home/perseus/Sem-9/Thesis/Data/CodeForces/16/Correct/A46.c'
p71
aS'/home/perseus/Sem-9/Thesis/Data/CodeForces/16/Correct/A43.c'
p72
aa(lp73
S'/home/perseus/Sem-9/Thesis/Data/CodeForces/16/Correct/A26.c'
p74
aa(lp75
S'/home/perseus/Sem-9/Thesis/Data/CodeForces/16/Correct/A37.c'
p76
aa(lp77
S'/home/perseus/Sem-9/Thesis/Data/CodeForces/16/Correct/A3.c'
p78
aa(lp79
S'/home/perseus/Sem-9/Thesis/Data/CodeForces/16/Correct/A28.c'
p80
aa(lp81
S'/home/perseus/Sem-9/Thesis/Data/CodeForces/16/Correct/A4.c'
p82
aa(lp83
S'/home/perseus/Sem-9/Thesis/Data/CodeForces/16/Correct/A2.c'
p84
aa(lp85
S'/home/perseus/Sem-9/Thesis/Data/CodeForces/16/Correct/A32.c'
p86
aa(lp87
S'/home/perseus/Sem-9/Thesis/Data/CodeForces/16/Correct/A33.c'
p88
aa(lp89
S'/home/perseus/Sem-9/Thesis/Data/CodeForces/16/Correct/A62.c'
p90
aa(lp91
S'/home/perseus/Sem-9/Thesis/Data/CodeForces/16/Correct/A55.c'
p92
aa(lp93
S'/home/perseus/Sem-9/Thesis/Data/CodeForces/16/Correct/A31.c'
p94
aa.(lp0
(S'/home/perseus/Sem-9/Thesis/Data/CodeForces/16/Incorrect/A19.c'
p1
I0
tp2
a(S'/home/perseus/Sem-9/Thesis/Data/CodeForces/16/Incorrect/A3.c'
p3
I0
tp4
a(S'/home/perseus/Sem-9/Thesis/Data/CodeForces/16/Incorrect/A56.c'
p5
F85.18518518518519
tp6
a(S'/home/perseus/Sem-9/Thesis/Data/CodeForces/16/Incorrect/A63.c'
p7
F63.63636363636363
tp8
a(S'/home/perseus/Sem-9/Thesis/Data/CodeForces/16/Incorrect/A52.c'
p9
F53.48837209302325
tp10
a(S'/home/perseus/Sem-9/Thesis/Data/CodeForces/16/Incorrect/A37.c'
p11
F0.0
tp12
a(S'/home/perseus/Sem-9/Thesis/Data/CodeForces/16/Incorrect/A40.c'
p13
I0
tp14
a(S'/home/perseus/Sem-9/Thesis/Data/CodeForces/16/Incorrect/A6.c'
p15
F65.9090909090909
tp16
a(S'/home/perseus/Sem-9/Thesis/Data/CodeForces/16/Incorrect/A70.c'
p17
F65.21739130434783
tp18
a(S'/home/perseus/Sem-9/Thesis/Data/CodeForces/16/Incorrect/A26.c'
p19
F37.5
tp20
a(S'/home/perseus/Sem-9/Thesis/Data/CodeForces/16/Incorrect/A57.c'
p21
F76.66666666666667
tp22
a(S'/home/perseus/Sem-9/Thesis/Data/CodeForces/16/Incorrect/A64.c'
p23
F76.66666666666667
tp24
a(S'/home/perseus/Sem-9/Thesis/Data/CodeForces/16/Incorrect/A13.c'
p25
F0.0
tp26
a(S'/home/perseus/Sem-9/Thesis/Data/CodeForces/16/Incorrect/A17.c'
p27
I0
tp28
a(S'/home/perseus/Sem-9/Thesis/Data/CodeForces/16/Incorrect/A48.c'
p29
F73.07692307692307
tp30
a(S'/home/perseus/Sem-9/Thesis/Data/CodeForces/16/Incorrect/A36.c'
p31
F0.0
tp32
a(S'/home/perseus/Sem-9/Thesis/Data/CodeForces/16/Incorrect/A28.c'
p33
I0
tp34
a(S'/home/perseus/Sem-9/Thesis/Data/CodeForces/16/Incorrect/A24.c'
p35
F0.0
tp36
a(S'/home/perseus/Sem-9/Thesis/Data/CodeForces/16/Incorrect/A4.c'
p37
F0.0
tp38
a(S'/home/perseus/Sem-9/Thesis/Data/CodeForces/16/Incorrect/A29.c'
p39
F0.0
tp40
a(S'/home/perseus/Sem-9/Thesis/Data/CodeForces/16/Incorrect/A61.c'
p41
I0
tp42
a(S'/home/perseus/Sem-9/Thesis/Data/CodeForces/16/Incorrect/A5.c'
p43
F89.65517241379311
tp44
a(S'/home/perseus/Sem-9/Thesis/Data/CodeForces/16/Incorrect/A55.c'
p45
F0.0
tp46
a(S'/home/perseus/Sem-9/Thesis/Data/CodeForces/16/Incorrect/A22.c'
p47
F0.0
tp48
a(S'/home/perseus/Sem-9/Thesis/Data/CodeForces/16/Incorrect/A68.c'
p49
F65.21739130434783
tp50
a(S'/home/perseus/Sem-9/Thesis/Data/CodeForces/16/Incorrect/A69.c'
p51
F65.21739130434783
tp52
a(S'/home/perseus/Sem-9/Thesis/Data/CodeForces/16/Incorrect/A14.c'
p53
F37.5
tp54
a(S'/home/perseus/Sem-9/Thesis/Data/CodeForces/16/Incorrect/A34.c'
p55
I0
tp56
a(S'/home/perseus/Sem-9/Thesis/Data/CodeForces/16/Incorrect/A54.c'
p57
F81.25
tp58
a(S'/home/perseus/Sem-9/Thesis/Data/CodeForces/16/Incorrect/A9.c'
p59
F76.92307692307693
tp60
a(S'/home/perseus/Sem-9/Thesis/Data/CodeForces/16/Incorrect/A2.c'
p61
F50.0
tp62
a(S'/home/perseus/Sem-9/Thesis/Data/CodeForces/16/Incorrect/A11.c'
p63
I0
tp64
a(S'/home/perseus/Sem-9/Thesis/Data/CodeForces/16/Incorrect/A25.c'
p65
F100.0
tp66
a(S'/home/perseus/Sem-9/Thesis/Data/CodeForces/16/Incorrect/A45.c'
p67
F71.875
tp68
a(S'/home/perseus/Sem-9/Thesis/Data/CodeForces/16/Incorrect/A39.c'
p69
F0.0
tp70
a(S'/home/perseus/Sem-9/Thesis/Data/CodeForces/16/Incorrect/A10.c'
p71
I0
tp72
a(S'/home/perseus/Sem-9/Thesis/Data/CodeForces/16/Incorrect/A35.c'
p73
F65.9090909090909
tp74
a(S'/home/perseus/Sem-9/Thesis/Data/CodeForces/16/Incorrect/A53.c'
p75
F0.0
tp76
a(S'/home/perseus/Sem-9/Thesis/Data/CodeForces/16/Incorrect/A65.c'
p77
F76.66666666666667
tp78
a(S'/home/perseus/Sem-9/Thesis/Data/CodeForces/16/Incorrect/A31.c'
p79
F0.0
tp80
a(S'/home/perseus/Sem-9/Thesis/Data/CodeForces/16/Incorrect/A49.c'
p81
I0
tp82
a(S'/home/perseus/Sem-9/Thesis/Data/CodeForces/16/Incorrect/A47.c'
p83
I0
tp84
a(S'/home/perseus/Sem-9/Thesis/Data/CodeForces/16/Incorrect/A7.c'
p85
I0
tp86
a(S'/home/perseus/Sem-9/Thesis/Data/CodeForces/16/Incorrect/A12.c'
p87
F62.16216216216216
tp88
a(S'/home/perseus/Sem-9/Thesis/Data/CodeForces/16/Incorrect/A41.c'
p89
F0.0
tp90
a(S'/home/perseus/Sem-9/Thesis/Data/CodeForces/16/Incorrect/A43.c'
p91
F71.875
tp92
a(S'/home/perseus/Sem-9/Thesis/Data/CodeForces/16/Incorrect/A67.c'
p93
F74.19354838709677
tp94
a(S'/home/perseus/Sem-9/Thesis/Data/CodeForces/16/Incorrect/A50.c'
p95
F0.0
tp96
a(S'/home/perseus/Sem-9/Thesis/Data/CodeForces/16/Incorrect/A38.c'
p97
F0.0
tp98
a(S'/home/perseus/Sem-9/Thesis/Data/CodeForces/16/Incorrect/A16.c'
p99
F0.0
tp100
a(S'/home/perseus/Sem-9/Thesis/Data/CodeForces/16/Incorrect/A32.c'
p101
F65.71428571428571
tp102
a(S'/home/perseus/Sem-9/Thesis/Data/CodeForces/16/Incorrect/A18.c'
p103
F0.0
tp104
a(S'/home/perseus/Sem-9/Thesis/Data/CodeForces/16/Incorrect/A58.c'
p105
F54.54545454545454
tp106
a(S'/home/perseus/Sem-9/Thesis/Data/CodeForces/16/Incorrect/A51.c'
p107
F0.0
tp108
a(S'/home/perseus/Sem-9/Thesis/Data/CodeForces/16/Incorrect/A23.c'
p109
F0.0
tp110
a(S'/home/perseus/Sem-9/Thesis/Data/CodeForces/16/Incorrect/A60.c'
p111
F0.0
tp112
a(S'/home/perseus/Sem-9/Thesis/Data/CodeForces/16/Incorrect/A27.c'
p113
I0
tp114
a(S'/home/perseus/Sem-9/Thesis/Data/CodeForces/16/Incorrect/A33.c'
p115
I0
tp116
a(S'/home/perseus/Sem-9/Thesis/Data/CodeForces/16/Incorrect/A62.c'
p117
F65.9090909090909
tp118
a(S'/home/perseus/Sem-9/Thesis/Data/CodeForces/16/Incorrect/A46.c'
p119
F0.0
tp120
a(S'/home/perseus/Sem-9/Thesis/Data/CodeForces/16/Incorrect/A44.c'
p121
F62.16216216216216
tp122
a(S'/home/perseus/Sem-9/Thesis/Data/CodeForces/16/Incorrect/A8.c'
p123
F0.0
tp124
a(S'/home/perseus/Sem-9/Thesis/Data/CodeForces/16/Incorrect/A21.c'
p125
F0.0
tp126
a(S'/home/perseus/Sem-9/Thesis/Data/CodeForces/16/Incorrect/A20.c'
p127
F63.63636363636363
tp128
a(S'/home/perseus/Sem-9/Thesis/Data/CodeForces/16/Incorrect/A15.c'
p129
F0.0
tp130
a(S'/home/perseus/Sem-9/Thesis/Data/CodeForces/16/Incorrect/A42.c'
p131
F82.85714285714286
tp132
a(S'/home/perseus/Sem-9/Thesis/Data/CodeForces/16/Incorrect/A59.c'
p133
F65.9090909090909
tp134
a(S'/home/perseus/Sem-9/Thesis/Data/CodeForces/16/Incorrect/A30.c'
p135
F0.0
tp136
a.