(lp0
(S'/home/perseus/Sem-9/Thesis/Data/CodeForces/17/Correct/A19.c'
p1
S'/home/perseus/Sem-9/Thesis/Data/CodeForces/17/Correct/A1.c'
p2
F0.0
tp3
a(g1
S'/home/perseus/Sem-9/Thesis/Data/CodeForces/17/Correct/A3.c'
p4
F0.0
tp5
a(g1
S'/home/perseus/Sem-9/Thesis/Data/CodeForces/17/Correct/A6.c'
p6
F0.0
tp7
a(g1
S'/home/perseus/Sem-9/Thesis/Data/CodeForces/17/Correct/A13.c'
p8
F0.0
tp9
a(g1
S'/home/perseus/Sem-9/Thesis/Data/CodeForces/17/Correct/A17.c'
p10
F0.0
tp11
a(g1
S'/home/perseus/Sem-9/Thesis/Data/CodeForces/17/Correct/A24.c'
p12
F0.0
tp13
a(g1
S'/home/perseus/Sem-9/Thesis/Data/CodeForces/17/Correct/A4.c'
p14
I0
tp15
a(g1
S'/home/perseus/Sem-9/Thesis/Data/CodeForces/17/Correct/A29.c'
p16
F0.4444444444444444
tp17
a(g1
S'/home/perseus/Sem-9/Thesis/Data/CodeForces/17/Correct/A5.c'
p18
F0.0
tp19
a(g1
S'/home/perseus/Sem-9/Thesis/Data/CodeForces/17/Correct/A22.c'
p20
F0.0
tp21
a(g1
S'/home/perseus/Sem-9/Thesis/Data/CodeForces/17/Correct/A14.c'
p22
F0.0
tp23
a(g1
S'/home/perseus/Sem-9/Thesis/Data/CodeForces/17/Correct/A34.c'
p24
I0
tp25
a(g1
S'/home/perseus/Sem-9/Thesis/Data/CodeForces/17/Correct/A9.c'
p26
F0.36363636363636365
tp27
a(g1
S'/home/perseus/Sem-9/Thesis/Data/CodeForces/17/Correct/A2.c'
p28
F0.4878048780487805
tp29
a(g1
S'/home/perseus/Sem-9/Thesis/Data/CodeForces/17/Correct/A11.c'
p30
F0.0
tp31
a(g1
S'/home/perseus/Sem-9/Thesis/Data/CodeForces/17/Correct/A25.c'
p32
F0.0
tp33
a(g1
S'/home/perseus/Sem-9/Thesis/Data/CodeForces/17/Correct/A10.c'
p34
F0.7142857142857143
tp35
a(g1
S'/home/perseus/Sem-9/Thesis/Data/CodeForces/17/Correct/A35.c'
p36
F0.0
tp37
a(g1
S'/home/perseus/Sem-9/Thesis/Data/CodeForces/17/Correct/A31.c'
p38
F0.0
tp39
a(g1
S'/home/perseus/Sem-9/Thesis/Data/CodeForces/17/Correct/A7.c'
p40
F0.0
tp41
a(g1
S'/home/perseus/Sem-9/Thesis/Data/CodeForces/17/Correct/A12.c'
p42
F0.0
tp43
a(g1
S'/home/perseus/Sem-9/Thesis/Data/CodeForces/17/Correct/A16.c'
p44
F0.46511627906976744
tp45
a(g1
S'/home/perseus/Sem-9/Thesis/Data/CodeForces/17/Correct/A27.c'
p46
F0.0
tp47
a(g1
S'/home/perseus/Sem-9/Thesis/Data/CodeForces/17/Correct/A33.c'
p48
F0.0
tp49
a(g1
S'/home/perseus/Sem-9/Thesis/Data/CodeForces/17/Correct/A8.c'
p50
I0
tp51
a(g1
S'/home/perseus/Sem-9/Thesis/Data/CodeForces/17/Correct/A21.c'
p52
F0.0
tp53
a(g1
S'/home/perseus/Sem-9/Thesis/Data/CodeForces/17/Correct/A15.c'
p54
I0
tp55
a(g2
g4
F0.0
tp56
a(g2
g6
F0.5609756097560976
tp57
a(g2
g8
F0.0
tp58
a(g2
g10
F0.0
tp59
a(g2
g12
F0.0
tp60
a(g2
g14
I0
tp61
a(g2
g16
F0.0
tp62
a(g2
g18
F0.0
tp63
a(g2
g20
F0.0
tp64
a(g2
g22
F0.0
tp65
a(g2
g24
F0.0
tp66
a(g2
g26
F0.0
tp67
a(g2
g28
F0.0
tp68
a(g2
g30
F0.0
tp69
a(g2
g32
F0.0
tp70
a(g2
g34
F0.0
tp71
a(g2
g36
F0.0
tp72
a(g2
g38
F0.4146341463414634
tp73
a(g2
g40
F0.0
tp74
a(g2
g42
F0.0
tp75
a(g2
g44
F0.0
tp76
a(g2
g46
F0.0
tp77
a(g2
g48
F0.0
tp78
a(g2
g50
I0
tp79
a(g2
g52
F0.5853658536585366
tp80
a(g2
g54
I0
tp81
a(g4
g6
F0.0
tp82
a(g4
g8
F0.0
tp83
a(g4
g10
F0.0
tp84
a(g4
g12
F0.0
tp85
a(g4
g14
I0
tp86
a(g4
g16
F0.0
tp87
a(g4
g18
F0.0
tp88
a(g4
g20
F0.0
tp89
a(g4
g22
F0.0
tp90
a(g4
g24
F0.5
tp91
a(g4
g26
F0.0
tp92
a(g4
g28
F0.0
tp93
a(g4
g30
F0.0
tp94
a(g4
g32
F0.0
tp95
a(g4
g34
F0.0
tp96
a(g4
g36
F0.0
tp97
a(g4
g38
F0.0
tp98
a(g4
g40
F0.0
tp99
a(g4
g42
F0.0
tp100
a(g4
g44
F0.0
tp101
a(g4
g46
F0.0
tp102
a(g4
g48
F0.0
tp103
a(g4
g50
I0
tp104
a(g4
g52
F0.0
tp105
a(g4
g54
I0
tp106
a(g6
g8
F0.0
tp107
a(g6
g10
F0.0
tp108
a(g6
g12
F0.0
tp109
a(g6
g14
I0
tp110
a(g6
g16
F0.5111111111111111
tp111
a(g6
g18
F0.0
tp112
a(g6
g20
F0.0
tp113
a(g6
g22
F0.6764705882352942
tp114
a(g6
g24
F0.32857142857142857
tp115
a(g6
g26
F0.41818181818181815
tp116
a(g6
g28
F0.5609756097560976
tp117
a(g6
g30
F0.0
tp118
a(g6
g32
F0.7666666666666667
tp119
a(g6
g34
F0.0
tp120
a(g6
g36
F0.0
tp121
a(g6
g38
F0.0
tp122
a(g6
g40
F0.0
tp123
a(g6
g42
F0.0
tp124
a(g6
g44
F0.5348837209302325
tp125
a(g6
g46
F0.0
tp126
a(g6
g48
F0.0
tp127
a(g6
g50
I0
tp128
a(g6
g52
F0.0
tp129
a(g6
g54
I0
tp130
a(g8
g10
F0.0
tp131
a(g8
g12
F0.0
tp132
a(g8
g14
I0
tp133
a(g8
g16
F0.0
tp134
a(g8
g18
F0.0
tp135
a(g8
g20
F0.0
tp136
a(g8
g22
F0.0
tp137
a(g8
g24
F0.45714285714285713
tp138
a(g8
g26
F0.0
tp139
a(g8
g28
F0.0
tp140
a(g8
g30
F0.0
tp141
a(g8
g32
F0.0
tp142
a(g8
g34
F0.0
tp143
a(g8
g36
F0.0
tp144
a(g8
g38
F0.0
tp145
a(g8
g40
F0.0
tp146
a(g8
g42
F1.0
tp147
a(g8
g44
F0.0
tp148
a(g8
g46
F0.0
tp149
a(g8
g48
F0.0
tp150
a(g8
g50
I0
tp151
a(g8
g52
F0.0
tp152
a(g8
g54
I0
tp153
a(g10
g12
F0.0
tp154
a(g10
g14
I0
tp155
a(g10
g16
F0.0
tp156
a(g10
g18
F0.0
tp157
a(g10
g20
F0.0
tp158
a(g10
g22
F0.0
tp159
a(g10
g24
F0.0
tp160
a(g10
g26
F0.0
tp161
a(g10
g28
F0.0
tp162
a(g10
g30
F0.0
tp163
a(g10
g32
F0.0
tp164
a(g10
g34
F0.0
tp165
a(g10
g36
F0.0
tp166
a(g10
g38
F0.53125
tp167
a(g10
g40
F0.0
tp168
a(g10
g42
F0.0
tp169
a(g10
g44
F0.0
tp170
a(g10
g46
F0.0
tp171
a(g10
g48
F0.0
tp172
a(g10
g50
I0
tp173
a(g10
g52
F0.75
tp174
a(g10
g54
I0
tp175
a(g12
g14
I0
tp176
a(g12
g16
F0.5555555555555556
tp177
a(g12
g18
F0.0
tp178
a(g12
g20
F1.0
tp179
a(g12
g22
F0.0
tp180
a(g12
g24
F0.35714285714285715
tp181
a(g12
g26
F0.0
tp182
a(g12
g28
F0.6097560975609756
tp183
a(g12
g30
F0.0
tp184
a(g12
g32
F0.0
tp185
a(g12
g34
F0.0
tp186
a(g12
g36
F0.0
tp187
a(g12
g38
F0.0
tp188
a(g12
g40
F0.0
tp189
a(g12
g42
F0.0
tp190
a(g12
g44
F0.5813953488372093
tp191
a(g12
g46
F0.0
tp192
a(g12
g48
F0.0
tp193
a(g12
g50
I0
tp194
a(g12
g52
F0.0
tp195
a(g12
g54
I0
tp196
a(g14
g16
I0
tp197
a(g14
g18
I0
tp198
a(g14
g20
I0
tp199
a(g14
g22
I0
tp200
a(g14
g24
F0.0
tp201
a(g14
g26
I0
tp202
a(g14
g28
I0
tp203
a(g14
g30
I0
tp204
a(g14
g32
I0
tp205
a(g14
g34
I0
tp206
a(g14
g36
I0
tp207
a(g14
g38
I0
tp208
a(g14
g40
I0
tp209
a(g14
g42
I0
tp210
a(g14
g44
I0
tp211
a(g14
g46
I0
tp212
a(g14
g48
I0
tp213
a(g14
g50
F0.0
tp214
a(g14
g52
I0
tp215
a(g14
g54
F0.0
tp216
a(g16
g18
F0.37777777777777777
tp217
a(g16
g20
F0.5555555555555556
tp218
a(g16
g22
F0.0
tp219
a(g16
g24
F0.0
tp220
a(g16
g26
F0.0
tp221
a(g16
g28
F0.0
tp222
a(g16
g30
F0.0
tp223
a(g16
g32
F0.0
tp224
a(g16
g34
F0.0
tp225
a(g16
g36
F0.5777777777777777
tp226
a(g16
g38
F0.37777777777777777
tp227
a(g16
g40
F0.0
tp228
a(g16
g42
F0.0
tp229
a(g16
g44
F0.0
tp230
a(g16
g46
F0.0
tp231
a(g16
g48
F0.0
tp232
a(g16
g50
I0
tp233
a(g16
g52
F0.5333333333333333
tp234
a(g16
g54
I0
tp235
a(g18
g20
F0.0
tp236
a(g18
g22
F0.0
tp237
a(g18
g24
I0
tp238
a(g18
g26
F0.3090909090909091
tp239
a(g18
g28
F0.0
tp240
a(g18
g30
F0.0
tp241
a(g18
g32
F0.0
tp242
a(g18
g34
F0.0
tp243
a(g18
g36
F0.0
tp244
a(g18
g38
F0.0
tp245
a(g18
g40
F0.0
tp246
a(g18
g42
F0.0
tp247
a(g18
g44
F0.3953488372093023
tp248
a(g18
g46
F0.0
tp249
a(g18
g48
F0.425
tp250
a(g18
g50
I0
tp251
a(g18
g52
F0.0
tp252
a(g18
g54
I0
tp253
a(g20
g22
F0.0
tp254
a(g20
g24
F0.35714285714285715
tp255
a(g20
g26
F0.0
tp256
a(g20
g28
F0.6097560975609756
tp257
a(g20
g30
F0.0
tp258
a(g20
g32
F0.0
tp259
a(g20
g34
F0.0
tp260
a(g20
g36
F0.0
tp261
a(g20
g38
F0.0
tp262
a(g20
g40
F0.0
tp263
a(g20
g42
F0.0
tp264
a(g20
g44
F0.5813953488372093
tp265
a(g20
g46
F0.0
tp266
a(g20
g48
F0.0
tp267
a(g20
g50
I0
tp268
a(g20
g52
F0.0
tp269
a(g20
g54
I0
tp270
a(g22
g24
F0.0
tp271
a(g22
g26
F0.0
tp272
a(g22
g28
F0.0
tp273
a(g22
g30
F0.0
tp274
a(g22
g32
F0.0
tp275
a(g22
g34
F0.0
tp276
a(g22
g36
F0.0
tp277
a(g22
g38
F0.5
tp278
a(g22
g40
F0.0
tp279
a(g22
g42
F0.0
tp280
a(g22
g44
F0.0
tp281
a(g22
g46
F0.0
tp282
a(g22
g48
F0.0
tp283
a(g22
g50
I0
tp284
a(g22
g52
F0.7058823529411765
tp285
a(g22
g54
I0
tp286
a(g24
g26
F0.0
tp287
a(g24
g28
F0.0
tp288
a(g24
g30
F0.4
tp289
a(g24
g32
F0.42857142857142855
tp290
a(g24
g34
F0.4
tp291
a(g24
g36
F0.37142857142857144
tp292
a(g24
g38
I0
tp293
a(g24
g40
F0.45714285714285713
tp294
a(g24
g42
F0.45714285714285713
tp295
a(g24
g44
F0.0
tp296
a(g24
g46
F0.42857142857142855
tp297
a(g24
g48
F0.0
tp298
a(g24
g50
F0.0
tp299
a(g24
g52
F0.34285714285714286
tp300
a(g24
g54
F0.0
tp301
a(g26
g28
F0.0
tp302
a(g26
g30
F0.0
tp303
a(g26
g32
F0.0
tp304
a(g26
g34
F0.0
tp305
a(g26
g36
F0.4727272727272727
tp306
a(g26
g38
F0.3090909090909091
tp307
a(g26
g40
F0.0
tp308
a(g26
g42
F0.0
tp309
a(g26
g44
F0.0
tp310
a(g26
g46
F0.0
tp311
a(g26
g48
F0.0
tp312
a(g26
g50
I0
tp313
a(g26
g52
F0.43636363636363634
tp314
a(g26
g54
I0
tp315
a(g28
g30
F0.0
tp316
a(g28
g32
F0.0
tp317
a(g28
g34
F0.0
tp318
a(g28
g36
F0.0
tp319
a(g28
g38
F0.4146341463414634
tp320
a(g28
g40
F0.0
tp321
a(g28
g42
F0.0
tp322
a(g28
g44
F0.0
tp323
a(g28
g46
F0.0
tp324
a(g28
g48
F0.0
tp325
a(g28
g50
I0
tp326
a(g28
g52
F0.5853658536585366
tp327
a(g28
g54
I0
tp328
a(g30
g32
F0.0
tp329
a(g30
g34
F0.0
tp330
a(g30
g36
F0.0
tp331
a(g30
g38
F0.0
tp332
a(g30
g40
F0.0
tp333
a(g30
g42
F0.0
tp334
a(g30
g44
F0.0
tp335
a(g30
g46
F0.0
tp336
a(g30
g48
F0.0
tp337
a(g30
g50
I0
tp338
a(g30
g52
F0.0
tp339
a(g30
g54
I0
tp340
a(g32
g34
F0.0
tp341
a(g32
g36
F0.0
tp342
a(g32
g38
F0.0
tp343
a(g32
g40
F0.0
tp344
a(g32
g42
F0.0
tp345
a(g32
g44
F0.0
tp346
a(g32
g46
F0.0
tp347
a(g32
g48
F0.0
tp348
a(g32
g50
I0
tp349
a(g32
g52
F0.0
tp350
a(g32
g54
I0
tp351
a(g34
g36
F0.0
tp352
a(g34
g38
F0.0
tp353
a(g34
g40
F0.0
tp354
a(g34
g42
F0.0
tp355
a(g34
g44
F0.0
tp356
a(g34
g46
F0.0
tp357
a(g34
g48
F0.0
tp358
a(g34
g50
I0
tp359
a(g34
g52
F0.0
tp360
a(g34
g54
I0
tp361
a(g36
g38
F0.0
tp362
a(g36
g40
F0.0
tp363
a(g36
g42
F0.0
tp364
a(g36
g44
F0.6046511627906976
tp365
a(g36
g46
F0.0
tp366
a(g36
g48
F0.0
tp367
a(g36
g50
I0
tp368
a(g36
g52
F0.0
tp369
a(g36
g54
I0
tp370
a(g38
g40
F0.0
tp371
a(g38
g42
F0.0
tp372
a(g38
g44
F0.0
tp373
a(g38
g46
F0.0
tp374
a(g38
g48
F0.0
tp375
a(g38
g50
I0
tp376
a(g38
g52
F0.0
tp377
a(g38
g54
I0
tp378
a(g40
g42
F0.0
tp379
a(g40
g44
F0.0
tp380
a(g40
g46
F0.0
tp381
a(g40
g48
F0.0
tp382
a(g40
g50
I0
tp383
a(g40
g52
F0.75
tp384
a(g40
g54
I0
tp385
a(g42
g44
F0.0
tp386
a(g42
g46
F0.0
tp387
a(g42
g48
F0.0
tp388
a(g42
g50
I0
tp389
a(g42
g52
F0.0
tp390
a(g42
g54
I0
tp391
a(g44
g46
F0.0
tp392
a(g44
g48
F0.0
tp393
a(g44
g50
I0
tp394
a(g44
g52
F0.5581395348837209
tp395
a(g44
g54
I0
tp396
a(g46
g48
F0.0
tp397
a(g46
g50
I0
tp398
a(g46
g52
F0.0
tp399
a(g46
g54
I0
tp400
a(g48
g50
I0
tp401
a(g48
g52
F0.6
tp402
a(g48
g54
I0
tp403
a(g50
g52
I0
tp404
a(g50
g54
F0.0
tp405
a(g52
g54
I0
tp406
a.(lp0
(lp1
S'/home/perseus/Sem-9/Thesis/Data/CodeForces/17/Correct/A10.c'
p2
aS'/home/perseus/Sem-9/Thesis/Data/CodeForces/17/Correct/A5.c'
p3
aS'/home/perseus/Sem-9/Thesis/Data/CodeForces/17/Correct/A35.c'
p4
aS'/home/perseus/Sem-9/Thesis/Data/CodeForces/17/Correct/A19.c'
p5
aS'/home/perseus/Sem-9/Thesis/Data/CodeForces/17/Correct/A16.c'
p6
aS'/home/perseus/Sem-9/Thesis/Data/CodeForces/17/Correct/A9.c'
p7
aa(lp8
S'/home/perseus/Sem-9/Thesis/Data/CodeForces/17/Correct/A11.c'
p9
aS'/home/perseus/Sem-9/Thesis/Data/CodeForces/17/Correct/A27.c'
p10
aS'/home/perseus/Sem-9/Thesis/Data/CodeForces/17/Correct/A12.c'
p11
aS'/home/perseus/Sem-9/Thesis/Data/CodeForces/17/Correct/A3.c'
p12
aS'/home/perseus/Sem-9/Thesis/Data/CodeForces/17/Correct/A13.c'
p13
aS'/home/perseus/Sem-9/Thesis/Data/CodeForces/17/Correct/A34.c'
p14
aa(lp15
S'/home/perseus/Sem-9/Thesis/Data/CodeForces/17/Correct/A1.c'
p16
aS'/home/perseus/Sem-9/Thesis/Data/CodeForces/17/Correct/A14.c'
p17
aS'/home/perseus/Sem-9/Thesis/Data/CodeForces/17/Correct/A31.c'
p18
aS'/home/perseus/Sem-9/Thesis/Data/CodeForces/17/Correct/A6.c'
p19
aS'/home/perseus/Sem-9/Thesis/Data/CodeForces/17/Correct/A25.c'
p20
aa(lp21
S'/home/perseus/Sem-9/Thesis/Data/CodeForces/17/Correct/A17.c'
p22
aS'/home/perseus/Sem-9/Thesis/Data/CodeForces/17/Correct/A7.c'
p23
aS'/home/perseus/Sem-9/Thesis/Data/CodeForces/17/Correct/A21.c'
p24
aS'/home/perseus/Sem-9/Thesis/Data/CodeForces/17/Correct/A33.c'
p25
aa(lp26
S'/home/perseus/Sem-9/Thesis/Data/CodeForces/17/Correct/A29.c'
p27
aS'/home/perseus/Sem-9/Thesis/Data/CodeForces/17/Correct/A2.c'
p28
aS'/home/perseus/Sem-9/Thesis/Data/CodeForces/17/Correct/A22.c'
p29
aS'/home/perseus/Sem-9/Thesis/Data/CodeForces/17/Correct/A24.c'
p30
aa(lp31
S'/home/perseus/Sem-9/Thesis/Data/CodeForces/17/Correct/A15.c'
p32
aa(lp33
S'/home/perseus/Sem-9/Thesis/Data/CodeForces/17/Correct/A4.c'
p34
aa(lp35
S'/home/perseus/Sem-9/Thesis/Data/CodeForces/17/Correct/A8.c'
p36
aa.(lp0
(S'/home/perseus/Sem-9/Thesis/Data/CodeForces/17/Incorrect/A19.c'
p1
F0.0
tp2
a(S'/home/perseus/Sem-9/Thesis/Data/CodeForces/17/Incorrect/A1.c'
p3
F100.0
tp4
a(S'/home/perseus/Sem-9/Thesis/Data/CodeForces/17/Incorrect/A3.c'
p5
F56.60377358490566
tp6
a(S'/home/perseus/Sem-9/Thesis/Data/CodeForces/17/Incorrect/A37.c'
p7
F0.0
tp8
a(S'/home/perseus/Sem-9/Thesis/Data/CodeForces/17/Incorrect/A40.c'
p9
F65.625
tp10
a(S'/home/perseus/Sem-9/Thesis/Data/CodeForces/17/Incorrect/A6.c'
p11
F77.77777777777779
tp12
a(S'/home/perseus/Sem-9/Thesis/Data/CodeForces/17/Incorrect/A26.c'
p13
F100.0
tp14
a(S'/home/perseus/Sem-9/Thesis/Data/CodeForces/17/Incorrect/A13.c'
p15
F37.77777777777778
tp16
a(S'/home/perseus/Sem-9/Thesis/Data/CodeForces/17/Incorrect/A17.c'
p17
F37.03703703703704
tp18
a(S'/home/perseus/Sem-9/Thesis/Data/CodeForces/17/Incorrect/A36.c'
p19
F0.0
tp20
a(S'/home/perseus/Sem-9/Thesis/Data/CodeForces/17/Incorrect/A24.c'
p21
F36.666666666666664
tp22
a(S'/home/perseus/Sem-9/Thesis/Data/CodeForces/17/Incorrect/A4.c'
p23
F57.692307692307686
tp24
a(S'/home/perseus/Sem-9/Thesis/Data/CodeForces/17/Incorrect/A5.c'
p25
F77.77777777777779
tp26
a(S'/home/perseus/Sem-9/Thesis/Data/CodeForces/17/Incorrect/A22.c'
p27
F0.0
tp28
a(S'/home/perseus/Sem-9/Thesis/Data/CodeForces/17/Incorrect/A14.c'
p29
F56.09756097560976
tp30
a(S'/home/perseus/Sem-9/Thesis/Data/CodeForces/17/Incorrect/A34.c'
p31
F100.0
tp32
a(S'/home/perseus/Sem-9/Thesis/Data/CodeForces/17/Incorrect/A9.c'
p33
F0.0
tp34
a(S'/home/perseus/Sem-9/Thesis/Data/CodeForces/17/Incorrect/A11.c'
p35
F0.0
tp36
a(S'/home/perseus/Sem-9/Thesis/Data/CodeForces/17/Incorrect/A25.c'
p37
F0.0
tp38
a(S'/home/perseus/Sem-9/Thesis/Data/CodeForces/17/Incorrect/A10.c'
p39
F75.55555555555556
tp40
a(S'/home/perseus/Sem-9/Thesis/Data/CodeForces/17/Incorrect/A35.c'
p41
F0.0
tp42
a(S'/home/perseus/Sem-9/Thesis/Data/CodeForces/17/Incorrect/A31.c'
p43
F0.0
tp44
a(S'/home/perseus/Sem-9/Thesis/Data/CodeForces/17/Incorrect/A7.c'
p45
F45.45454545454545
tp46
a(S'/home/perseus/Sem-9/Thesis/Data/CodeForces/17/Incorrect/A12.c'
p47
F60.0
tp48
a(S'/home/perseus/Sem-9/Thesis/Data/CodeForces/17/Incorrect/A41.c'
p49
F56.25
tp50
a(S'/home/perseus/Sem-9/Thesis/Data/CodeForces/17/Incorrect/A43.c'
p51
F52.63157894736842
tp52
a(S'/home/perseus/Sem-9/Thesis/Data/CodeForces/17/Incorrect/A16.c'
p53
F37.03703703703704
tp54
a(S'/home/perseus/Sem-9/Thesis/Data/CodeForces/17/Incorrect/A32.c'
p55
F0.0
tp56
a(S'/home/perseus/Sem-9/Thesis/Data/CodeForces/17/Incorrect/A18.c'
p57
F71.11111111111111
tp58
a(S'/home/perseus/Sem-9/Thesis/Data/CodeForces/17/Incorrect/A23.c'
p59
F40.0
tp60
a(S'/home/perseus/Sem-9/Thesis/Data/CodeForces/17/Incorrect/A27.c'
p61
F100.0
tp62
a(S'/home/perseus/Sem-9/Thesis/Data/CodeForces/17/Incorrect/A8.c'
p63
F51.11111111111111
tp64
a(S'/home/perseus/Sem-9/Thesis/Data/CodeForces/17/Incorrect/A21.c'
p65
F0.0
tp66
a(S'/home/perseus/Sem-9/Thesis/Data/CodeForces/17/Incorrect/A20.c'
p67
F0.0
tp68
a(S'/home/perseus/Sem-9/Thesis/Data/CodeForces/17/Incorrect/A15.c'
p69
F0.0
tp70
a(S'/home/perseus/Sem-9/Thesis/Data/CodeForces/17/Incorrect/A42.c'
p71
I0
tp72
a(S'/home/perseus/Sem-9/Thesis/Data/CodeForces/17/Incorrect/A30.c'
p73
F57.77777777777777
tp74
a.