(lp0
(S'/home/perseus/Academics/Sem-9/Thesis/Data/CodeForces/21/Correct/A14.c'
p1
S'/home/perseus/Academics/Sem-9/Thesis/Data/CodeForces/21/Correct/A17.c'
p2
F0.0
tp3
a(g1
S'/home/perseus/Academics/Sem-9/Thesis/Data/CodeForces/21/Correct/A3.c'
p4
F0.0
tp5
a(g1
S'/home/perseus/Academics/Sem-9/Thesis/Data/CodeForces/21/Correct/A5.c'
p6
F0.0
tp7
a(g1
S'/home/perseus/Academics/Sem-9/Thesis/Data/CodeForces/21/Correct/A18.c'
p8
F0.0
tp9
a(g1
S'/home/perseus/Academics/Sem-9/Thesis/Data/CodeForces/21/Correct/A9.c'
p10
F0.0
tp11
a(g1
S'/home/perseus/Academics/Sem-9/Thesis/Data/CodeForces/21/Correct/A2.c'
p12
F0.0
tp13
a(g1
S'/home/perseus/Academics/Sem-9/Thesis/Data/CodeForces/21/Correct/A6.c'
p14
F0.0
tp15
a(g1
S'/home/perseus/Academics/Sem-9/Thesis/Data/CodeForces/21/Correct/A15.c'
p16
F1.0
tp17
a(g1
S'/home/perseus/Academics/Sem-9/Thesis/Data/CodeForces/21/Correct/A19.c'
p18
F0.0
tp19
a(g1
S'/home/perseus/Academics/Sem-9/Thesis/Data/CodeForces/21/Correct/A4.c'
p20
F0.0
tp21
a(g1
S'/home/perseus/Academics/Sem-9/Thesis/Data/CodeForces/21/Correct/A11.c'
p22
I0
tp23
a(g1
S'/home/perseus/Academics/Sem-9/Thesis/Data/CodeForces/21/Correct/A8.c'
p24
F1.0
tp25
a(g1
S'/home/perseus/Academics/Sem-9/Thesis/Data/CodeForces/21/Correct/A13.c'
p26
F0.0
tp27
a(g1
S'/home/perseus/Academics/Sem-9/Thesis/Data/CodeForces/21/Correct/A10.c'
p28
I0
tp29
a(g1
S'/home/perseus/Academics/Sem-9/Thesis/Data/CodeForces/21/Correct/A16.c'
p30
F1.0
tp31
a(g1
S'/home/perseus/Academics/Sem-9/Thesis/Data/CodeForces/21/Correct/A20.c'
p32
F0.0
tp33
a(g1
S'/home/perseus/Academics/Sem-9/Thesis/Data/CodeForces/21/Correct/A1.c'
p34
F0.0
tp35
a(g1
S'/home/perseus/Academics/Sem-9/Thesis/Data/CodeForces/21/Correct/A7.c'
p36
F0.0
tp37
a(g1
S'/home/perseus/Academics/Sem-9/Thesis/Data/CodeForces/21/Correct/A12.c'
p38
F0.0
tp39
a(g2
g4
F0.0
tp40
a(g2
g6
F0.0
tp41
a(g2
g8
F0.0
tp42
a(g2
g10
F0.0
tp43
a(g2
g12
F0.0
tp44
a(g2
g14
F0.0
tp45
a(g2
g16
F0.0
tp46
a(g2
g18
F0.0
tp47
a(g2
g20
F0.0
tp48
a(g2
g22
I0
tp49
a(g2
g24
F0.0
tp50
a(g2
g26
F0.0
tp51
a(g2
g28
I0
tp52
a(g2
g30
F0.0
tp53
a(g2
g32
F0.0
tp54
a(g2
g34
F0.0
tp55
a(g2
g36
F0.0
tp56
a(g2
g38
F0.0
tp57
a(g4
g6
F0.0
tp58
a(g4
g8
F0.0
tp59
a(g4
g10
F0.0
tp60
a(g4
g12
F0.0
tp61
a(g4
g14
F0.0
tp62
a(g4
g16
F0.0
tp63
a(g4
g18
F0.0
tp64
a(g4
g20
F0.0
tp65
a(g4
g22
I0
tp66
a(g4
g24
F0.0
tp67
a(g4
g26
F0.0
tp68
a(g4
g28
I0
tp69
a(g4
g30
F0.0
tp70
a(g4
g32
F0.0
tp71
a(g4
g34
F0.0
tp72
a(g4
g36
F0.0
tp73
a(g4
g38
F0.0
tp74
a(g6
g8
F0.7902439024390244
tp75
a(g6
g10
F0.751219512195122
tp76
a(g6
g12
F0.0
tp77
a(g6
g14
F0.0
tp78
a(g6
g16
F0.0
tp79
a(g6
g18
F0.0
tp80
a(g6
g20
F0.0
tp81
a(g6
g22
I0
tp82
a(g6
g24
F0.0
tp83
a(g6
g26
F0.0
tp84
a(g6
g28
I0
tp85
a(g6
g30
F0.0
tp86
a(g6
g32
F0.0
tp87
a(g6
g34
F0.0
tp88
a(g6
g36
F0.4634146341463415
tp89
a(g6
g38
F0.0
tp90
a(g8
g10
F0.0
tp91
a(g8
g12
F0.0
tp92
a(g8
g14
F0.0
tp93
a(g8
g16
F0.0
tp94
a(g8
g18
F0.0
tp95
a(g8
g20
F0.0
tp96
a(g8
g22
I0
tp97
a(g8
g24
F0.0
tp98
a(g8
g26
F0.0
tp99
a(g8
g28
I0
tp100
a(g8
g30
F0.0
tp101
a(g8
g32
F0.0
tp102
a(g8
g34
F0.0
tp103
a(g8
g36
F0.5864197530864198
tp104
a(g8
g38
F0.0
tp105
a(g10
g12
F0.0
tp106
a(g10
g14
F0.652542372881356
tp107
a(g10
g16
F0.0
tp108
a(g10
g18
F0.0
tp109
a(g10
g20
F0.0
tp110
a(g10
g22
I0
tp111
a(g10
g24
F0.0
tp112
a(g10
g26
F0.0
tp113
a(g10
g28
I0
tp114
a(g10
g30
F0.0
tp115
a(g10
g32
F0.0
tp116
a(g10
g34
F0.0
tp117
a(g10
g36
F0.0
tp118
a(g10
g38
F0.0
tp119
a(g12
g14
F0.0
tp120
a(g12
g16
F0.0
tp121
a(g12
g18
F0.0
tp122
a(g12
g20
F0.0
tp123
a(g12
g22
I0
tp124
a(g12
g24
F0.0
tp125
a(g12
g26
F0.0
tp126
a(g12
g28
I0
tp127
a(g12
g30
F0.0
tp128
a(g12
g32
F0.0
tp129
a(g12
g34
F0.0
tp130
a(g12
g36
F0.0
tp131
a(g12
g38
F0.0
tp132
a(g14
g16
F0.0
tp133
a(g14
g18
F0.0
tp134
a(g14
g20
F0.0
tp135
a(g14
g22
I0
tp136
a(g14
g24
F0.0
tp137
a(g14
g26
F0.0
tp138
a(g14
g28
I0
tp139
a(g14
g30
F0.0
tp140
a(g14
g32
F0.0
tp141
a(g14
g34
F0.0
tp142
a(g14
g36
F0.4025423728813559
tp143
a(g14
g38
F0.0
tp144
a(g16
g18
F0.0
tp145
a(g16
g20
F0.0
tp146
a(g16
g22
I0
tp147
a(g16
g24
F1.0
tp148
a(g16
g26
F0.0
tp149
a(g16
g28
I0
tp150
a(g16
g30
F1.0
tp151
a(g16
g32
F0.0
tp152
a(g16
g34
F0.0
tp153
a(g16
g36
F0.0
tp154
a(g16
g38
F0.0
tp155
a(g18
g20
F0.0
tp156
a(g18
g22
I0
tp157
a(g18
g24
F0.0
tp158
a(g18
g26
F0.0
tp159
a(g18
g28
I0
tp160
a(g18
g30
F0.0
tp161
a(g18
g32
F0.0
tp162
a(g18
g34
F0.0
tp163
a(g18
g36
F0.0
tp164
a(g18
g38
F0.0
tp165
a(g20
g22
I0
tp166
a(g20
g24
F0.0
tp167
a(g20
g26
F0.0
tp168
a(g20
g28
I0
tp169
a(g20
g30
F0.0
tp170
a(g20
g32
F0.0
tp171
a(g20
g34
F0.0
tp172
a(g20
g36
F0.5163043478260869
tp173
a(g20
g38
F0.0
tp174
a(g22
g24
I0
tp175
a(g22
g26
I0
tp176
a(g22
g28
F1.0
tp177
a(g22
g30
I0
tp178
a(g22
g32
I0
tp179
a(g22
g34
I0
tp180
a(g22
g36
I0
tp181
a(g22
g38
I0
tp182
a(g24
g26
F0.0
tp183
a(g24
g28
I0
tp184
a(g24
g30
F1.0
tp185
a(g24
g32
F0.0
tp186
a(g24
g34
F0.0
tp187
a(g24
g36
F0.0
tp188
a(g24
g38
F0.0
tp189
a(g26
g28
I0
tp190
a(g26
g30
F0.0
tp191
a(g26
g32
F0.0
tp192
a(g26
g34
F0.0
tp193
a(g26
g36
F0.6209150326797386
tp194
a(g26
g38
F0.0
tp195
a(g28
g30
I0
tp196
a(g28
g32
I0
tp197
a(g28
g34
I0
tp198
a(g28
g36
I0
tp199
a(g28
g38
I0
tp200
a(g30
g32
F0.0
tp201
a(g30
g34
F0.0
tp202
a(g30
g36
F0.0
tp203
a(g30
g38
F0.0
tp204
a(g32
g34
F0.0
tp205
a(g32
g36
F0.5654761904761905
tp206
a(g32
g38
F1.0
tp207
a(g34
g36
F0.0
tp208
a(g34
g38
F0.0
tp209
a(g36
g38
F0.5654761904761905
tp210
a.(lp0
(lp1
S'/home/perseus/Academics/Sem-9/Thesis/Data/CodeForces/21/Correct/A11.c'
p2
aS'/home/perseus/Academics/Sem-9/Thesis/Data/CodeForces/21/Correct/A10.c'
p3
aa(lp4
S'/home/perseus/Academics/Sem-9/Thesis/Data/CodeForces/21/Correct/A20.c'
p5
aS'/home/perseus/Academics/Sem-9/Thesis/Data/CodeForces/21/Correct/A12.c'
p6
aS'/home/perseus/Academics/Sem-9/Thesis/Data/CodeForces/21/Correct/A9.c'
p7
aS'/home/perseus/Academics/Sem-9/Thesis/Data/CodeForces/21/Correct/A13.c'
p8
aS'/home/perseus/Academics/Sem-9/Thesis/Data/CodeForces/21/Correct/A7.c'
p9
aS'/home/perseus/Academics/Sem-9/Thesis/Data/CodeForces/21/Correct/A18.c'
p10
aS'/home/perseus/Academics/Sem-9/Thesis/Data/CodeForces/21/Correct/A4.c'
p11
aS'/home/perseus/Academics/Sem-9/Thesis/Data/CodeForces/21/Correct/A5.c'
p12
aS'/home/perseus/Academics/Sem-9/Thesis/Data/CodeForces/21/Correct/A6.c'
p13
aa(lp14
S'/home/perseus/Academics/Sem-9/Thesis/Data/CodeForces/21/Correct/A2.c'
p15
aa(lp16
S'/home/perseus/Academics/Sem-9/Thesis/Data/CodeForces/21/Correct/A17.c'
p17
aa(lp18
S'/home/perseus/Academics/Sem-9/Thesis/Data/CodeForces/21/Correct/A16.c'
p19
aS'/home/perseus/Academics/Sem-9/Thesis/Data/CodeForces/21/Correct/A15.c'
p20
aS'/home/perseus/Academics/Sem-9/Thesis/Data/CodeForces/21/Correct/A8.c'
p21
aS'/home/perseus/Academics/Sem-9/Thesis/Data/CodeForces/21/Correct/A14.c'
p22
aa(lp23
S'/home/perseus/Academics/Sem-9/Thesis/Data/CodeForces/21/Correct/A19.c'
p24
aa(lp25
S'/home/perseus/Academics/Sem-9/Thesis/Data/CodeForces/21/Correct/A1.c'
p26
aa(lp27
S'/home/perseus/Academics/Sem-9/Thesis/Data/CodeForces/21/Correct/A3.c'
p28
aa.(lp0
(S'/home/perseus/Academics/Sem-9/Thesis/Data/CodeForces/21/Incorrect/A49.c'
p1
F52.38095238095239
tp2
a(S'/home/perseus/Academics/Sem-9/Thesis/Data/CodeForces/21/Incorrect/A84.c'
p3
I0
tp4
a(S'/home/perseus/Academics/Sem-9/Thesis/Data/CodeForces/21/Incorrect/A58.c'
p5
F0.0
tp6
a(S'/home/perseus/Academics/Sem-9/Thesis/Data/CodeForces/21/Incorrect/A61.c'
p7
I0
tp8
a(S'/home/perseus/Academics/Sem-9/Thesis/Data/CodeForces/21/Incorrect/A51.c'
p9
I0
tp10
a(S'/home/perseus/Academics/Sem-9/Thesis/Data/CodeForces/21/Incorrect/A28.c'
p11
I0
tp12
a(S'/home/perseus/Academics/Sem-9/Thesis/Data/CodeForces/21/Incorrect/A14.c'
p13
F92.51700680272108
tp14
a(S'/home/perseus/Academics/Sem-9/Thesis/Data/CodeForces/21/Incorrect/A54.c'
p15
F58.333333333333336
tp16
a(S'/home/perseus/Academics/Sem-9/Thesis/Data/CodeForces/21/Incorrect/A38.c'
p17
I0
tp18
a(S'/home/perseus/Academics/Sem-9/Thesis/Data/CodeForces/21/Incorrect/A30.c'
p19
I0
tp20
a(S'/home/perseus/Academics/Sem-9/Thesis/Data/CodeForces/21/Incorrect/A67.c'
p21
I0
tp22
a(S'/home/perseus/Academics/Sem-9/Thesis/Data/CodeForces/21/Incorrect/A17.c'
p23
F89.79591836734694
tp24
a(S'/home/perseus/Academics/Sem-9/Thesis/Data/CodeForces/21/Incorrect/A63.c'
p25
I0
tp26
a(S'/home/perseus/Academics/Sem-9/Thesis/Data/CodeForces/21/Incorrect/A65.c'
p27
I0
tp28
a(S'/home/perseus/Academics/Sem-9/Thesis/Data/CodeForces/21/Incorrect/A31.c'
p29
I0
tp30
a(S'/home/perseus/Academics/Sem-9/Thesis/Data/CodeForces/21/Incorrect/A81.c'
p31
F81.62162162162161
tp32
a(S'/home/perseus/Academics/Sem-9/Thesis/Data/CodeForces/21/Incorrect/A60.c'
p33
I0
tp34
a(S'/home/perseus/Academics/Sem-9/Thesis/Data/CodeForces/21/Incorrect/A92.c'
p35
I0
tp36
a(S'/home/perseus/Academics/Sem-9/Thesis/Data/CodeForces/21/Incorrect/A21.c'
p37
I0
tp38
a(S'/home/perseus/Academics/Sem-9/Thesis/Data/CodeForces/21/Incorrect/A62.c'
p39
I0
tp40
a(S'/home/perseus/Academics/Sem-9/Thesis/Data/CodeForces/21/Incorrect/A3.c'
p41
I0
tp42
a(S'/home/perseus/Academics/Sem-9/Thesis/Data/CodeForces/21/Incorrect/A64.c'
p43
F99.45652173913044
tp44
a(S'/home/perseus/Academics/Sem-9/Thesis/Data/CodeForces/21/Incorrect/A44.c'
p45
I0
tp46
a(S'/home/perseus/Academics/Sem-9/Thesis/Data/CodeForces/21/Incorrect/A5.c'
p47
I0
tp48
a(S'/home/perseus/Academics/Sem-9/Thesis/Data/CodeForces/21/Incorrect/A18.c'
p49
I0
tp50
a(S'/home/perseus/Academics/Sem-9/Thesis/Data/CodeForces/21/Incorrect/A43.c'
p51
F53.57142857142857
tp52
a(S'/home/perseus/Academics/Sem-9/Thesis/Data/CodeForces/21/Incorrect/A9.c'
p53
I0
tp54
a(S'/home/perseus/Academics/Sem-9/Thesis/Data/CodeForces/21/Incorrect/A86.c'
p55
F96.42857142857143
tp56
a(S'/home/perseus/Academics/Sem-9/Thesis/Data/CodeForces/21/Incorrect/A34.c'
p57
I0
tp58
a(S'/home/perseus/Academics/Sem-9/Thesis/Data/CodeForces/21/Incorrect/A26.c'
p59
I0
tp60
a(S'/home/perseus/Academics/Sem-9/Thesis/Data/CodeForces/21/Incorrect/A89.c'
p61
I0
tp62
a(S'/home/perseus/Academics/Sem-9/Thesis/Data/CodeForces/21/Incorrect/A2.c'
p63
I0
tp64
a(S'/home/perseus/Academics/Sem-9/Thesis/Data/CodeForces/21/Incorrect/A32.c'
p65
I0
tp66
a(S'/home/perseus/Academics/Sem-9/Thesis/Data/CodeForces/21/Incorrect/A46.c'
p67
F52.976190476190474
tp68
a(S'/home/perseus/Academics/Sem-9/Thesis/Data/CodeForces/21/Incorrect/A6.c'
p69
I0
tp70
a(S'/home/perseus/Academics/Sem-9/Thesis/Data/CodeForces/21/Incorrect/A23.c'
p71
F100.0
tp72
a(S'/home/perseus/Academics/Sem-9/Thesis/Data/CodeForces/21/Incorrect/A90.c'
p73
I0
tp74
a(S'/home/perseus/Academics/Sem-9/Thesis/Data/CodeForces/21/Incorrect/A36.c'
p75
I0
tp76
a(S'/home/perseus/Academics/Sem-9/Thesis/Data/CodeForces/21/Incorrect/A79.c'
p77
F91.35135135135135
tp78
a(S'/home/perseus/Academics/Sem-9/Thesis/Data/CodeForces/21/Incorrect/A15.c'
p79
F91.83673469387756
tp80
a(S'/home/perseus/Academics/Sem-9/Thesis/Data/CodeForces/21/Incorrect/A87.c'
p81
I0
tp82
a(S'/home/perseus/Academics/Sem-9/Thesis/Data/CodeForces/21/Incorrect/A19.c'
p83
I0
tp84
a(S'/home/perseus/Academics/Sem-9/Thesis/Data/CodeForces/21/Incorrect/A45.c'
p85
F64.28571428571429
tp86
a(S'/home/perseus/Academics/Sem-9/Thesis/Data/CodeForces/21/Incorrect/A50.c'
p87
F42.857142857142854
tp88
a(S'/home/perseus/Academics/Sem-9/Thesis/Data/CodeForces/21/Incorrect/A69.c'
p89
I0
tp90
a(S'/home/perseus/Academics/Sem-9/Thesis/Data/CodeForces/21/Incorrect/A57.c'
p91
F0.0
tp92
a(S'/home/perseus/Academics/Sem-9/Thesis/Data/CodeForces/21/Incorrect/A4.c'
p93
I0
tp94
a(S'/home/perseus/Academics/Sem-9/Thesis/Data/CodeForces/21/Incorrect/A82.c'
p95
I0
tp96
a(S'/home/perseus/Academics/Sem-9/Thesis/Data/CodeForces/21/Incorrect/A78.c'
p97
I0
tp98
a(S'/home/perseus/Academics/Sem-9/Thesis/Data/CodeForces/21/Incorrect/A68.c'
p99
I0
tp100
a(S'/home/perseus/Academics/Sem-9/Thesis/Data/CodeForces/21/Incorrect/A85.c'
p101
F95.83333333333334
tp102
a(S'/home/perseus/Academics/Sem-9/Thesis/Data/CodeForces/21/Incorrect/A41.c'
p103
F53.57142857142857
tp104
a(S'/home/perseus/Academics/Sem-9/Thesis/Data/CodeForces/21/Incorrect/A11.c'
p105
F94.5578231292517
tp106
a(S'/home/perseus/Academics/Sem-9/Thesis/Data/CodeForces/21/Incorrect/A39.c'
p107
I0
tp108
a(S'/home/perseus/Academics/Sem-9/Thesis/Data/CodeForces/21/Incorrect/A91.c'
p109
I0
tp110
a(S'/home/perseus/Academics/Sem-9/Thesis/Data/CodeForces/21/Incorrect/A76.c'
p111
I0
tp112
a(S'/home/perseus/Academics/Sem-9/Thesis/Data/CodeForces/21/Incorrect/A83.c'
p113
I0
tp114
a(S'/home/perseus/Academics/Sem-9/Thesis/Data/CodeForces/21/Incorrect/A70.c'
p115
I0
tp116
a(S'/home/perseus/Academics/Sem-9/Thesis/Data/CodeForces/21/Incorrect/A80.c'
p117
F86.48648648648648
tp118
a(S'/home/perseus/Academics/Sem-9/Thesis/Data/CodeForces/21/Incorrect/A8.c'
p119
I0
tp120
a(S'/home/perseus/Academics/Sem-9/Thesis/Data/CodeForces/21/Incorrect/A52.c'
p121
I0
tp122
a(S'/home/perseus/Academics/Sem-9/Thesis/Data/CodeForces/21/Incorrect/A40.c'
p123
I0
tp124
a(S'/home/perseus/Academics/Sem-9/Thesis/Data/CodeForces/21/Incorrect/A13.c'
p125
F93.87755102040816
tp126
a(S'/home/perseus/Academics/Sem-9/Thesis/Data/CodeForces/21/Incorrect/A37.c'
p127
I0
tp128
a(S'/home/perseus/Academics/Sem-9/Thesis/Data/CodeForces/21/Incorrect/A71.c'
p129
I0
tp130
a(S'/home/perseus/Academics/Sem-9/Thesis/Data/CodeForces/21/Incorrect/A10.c'
p131
I0
tp132
a(S'/home/perseus/Academics/Sem-9/Thesis/Data/CodeForces/21/Incorrect/A24.c'
p133
I0
tp134
a(S'/home/perseus/Academics/Sem-9/Thesis/Data/CodeForces/21/Incorrect/A73.c'
p135
I0
tp136
a(S'/home/perseus/Academics/Sem-9/Thesis/Data/CodeForces/21/Incorrect/A55.c'
p137
I0
tp138
a(S'/home/perseus/Academics/Sem-9/Thesis/Data/CodeForces/21/Incorrect/A16.c'
p139
F89.79591836734694
tp140
a(S'/home/perseus/Academics/Sem-9/Thesis/Data/CodeForces/21/Incorrect/A75.c'
p141
I0
tp142
a(S'/home/perseus/Academics/Sem-9/Thesis/Data/CodeForces/21/Incorrect/A72.c'
p143
I0
tp144
a(S'/home/perseus/Academics/Sem-9/Thesis/Data/CodeForces/21/Incorrect/A88.c'
p145
I0
tp146
a(S'/home/perseus/Academics/Sem-9/Thesis/Data/CodeForces/21/Incorrect/A33.c'
p147
I0
tp148
a(S'/home/perseus/Academics/Sem-9/Thesis/Data/CodeForces/21/Incorrect/A29.c'
p149
I0
tp150
a(S'/home/perseus/Academics/Sem-9/Thesis/Data/CodeForces/21/Incorrect/A22.c'
p151
I0
tp152
a(S'/home/perseus/Academics/Sem-9/Thesis/Data/CodeForces/21/Incorrect/A77.c'
p153
I0
tp154
a(S'/home/perseus/Academics/Sem-9/Thesis/Data/CodeForces/21/Incorrect/A20.c'
p155
I0
tp156
a(S'/home/perseus/Academics/Sem-9/Thesis/Data/CodeForces/21/Incorrect/A66.c'
p157
I0
tp158
a(S'/home/perseus/Academics/Sem-9/Thesis/Data/CodeForces/21/Incorrect/A42.c'
p159
F52.976190476190474
tp160
a(S'/home/perseus/Academics/Sem-9/Thesis/Data/CodeForces/21/Incorrect/A53.c'
p161
I0
tp162
a(S'/home/perseus/Academics/Sem-9/Thesis/Data/CodeForces/21/Incorrect/A25.c'
p163
I0
tp164
a(S'/home/perseus/Academics/Sem-9/Thesis/Data/CodeForces/21/Incorrect/A56.c'
p165
F100.0
tp166
a(S'/home/perseus/Academics/Sem-9/Thesis/Data/CodeForces/21/Incorrect/A27.c'
p167
I0
tp168
a(S'/home/perseus/Academics/Sem-9/Thesis/Data/CodeForces/21/Incorrect/A59.c'
p169
I0
tp170
a(S'/home/perseus/Academics/Sem-9/Thesis/Data/CodeForces/21/Incorrect/A48.c'
p171
F55.35714285714286
tp172
a(S'/home/perseus/Academics/Sem-9/Thesis/Data/CodeForces/21/Incorrect/A47.c'
p173
F55.952380952380956
tp174
a(S'/home/perseus/Academics/Sem-9/Thesis/Data/CodeForces/21/Incorrect/A35.c'
p175
I0
tp176
a(S'/home/perseus/Academics/Sem-9/Thesis/Data/CodeForces/21/Incorrect/A1.c'
p177
I0
tp178
a(S'/home/perseus/Academics/Sem-9/Thesis/Data/CodeForces/21/Incorrect/A74.c'
p179
I0
tp180
a(S'/home/perseus/Academics/Sem-9/Thesis/Data/CodeForces/21/Incorrect/A7.c'
p181
I0
tp182
a(S'/home/perseus/Academics/Sem-9/Thesis/Data/CodeForces/21/Incorrect/A12.c'
p183
F94.5578231292517
tp184
a.