(lp0
(S'/home/perseus/Academics/Sem-9/Thesis/Data/CodeForces/24/Correct/A14.c'
p1
S'/home/perseus/Academics/Sem-9/Thesis/Data/CodeForces/24/Correct/A17.c'
p2
F0.0
tp3
a(g1
S'/home/perseus/Academics/Sem-9/Thesis/Data/CodeForces/24/Correct/A3.c'
p4
F0.0
tp5
a(g1
S'/home/perseus/Academics/Sem-9/Thesis/Data/CodeForces/24/Correct/A5.c'
p6
F0.0
tp7
a(g1
S'/home/perseus/Academics/Sem-9/Thesis/Data/CodeForces/24/Correct/A18.c'
p8
F0.0
tp9
a(g1
S'/home/perseus/Academics/Sem-9/Thesis/Data/CodeForces/24/Correct/A9.c'
p10
F0.0
tp11
a(g1
S'/home/perseus/Academics/Sem-9/Thesis/Data/CodeForces/24/Correct/A6.c'
p12
F0.0
tp13
a(g1
S'/home/perseus/Academics/Sem-9/Thesis/Data/CodeForces/24/Correct/A15.c'
p14
F0.0
tp15
a(g1
S'/home/perseus/Academics/Sem-9/Thesis/Data/CodeForces/24/Correct/A19.c'
p16
F0.0
tp17
a(g1
S'/home/perseus/Academics/Sem-9/Thesis/Data/CodeForces/24/Correct/A4.c'
p18
F0.0
tp19
a(g1
S'/home/perseus/Academics/Sem-9/Thesis/Data/CodeForces/24/Correct/A11.c'
p20
F0.3508771929824561
tp21
a(g1
S'/home/perseus/Academics/Sem-9/Thesis/Data/CodeForces/24/Correct/A8.c'
p22
F0.0
tp23
a(g1
S'/home/perseus/Academics/Sem-9/Thesis/Data/CodeForces/24/Correct/A13.c'
p24
F0.0
tp25
a(g1
S'/home/perseus/Academics/Sem-9/Thesis/Data/CodeForces/24/Correct/A10.c'
p26
F0.0
tp27
a(g1
S'/home/perseus/Academics/Sem-9/Thesis/Data/CodeForces/24/Correct/A16.c'
p28
F0.0
tp29
a(g1
S'/home/perseus/Academics/Sem-9/Thesis/Data/CodeForces/24/Correct/A20.c'
p30
F0.0
tp31
a(g1
S'/home/perseus/Academics/Sem-9/Thesis/Data/CodeForces/24/Correct/A1.c'
p32
F0.0
tp33
a(g1
S'/home/perseus/Academics/Sem-9/Thesis/Data/CodeForces/24/Correct/A12.c'
p34
F0.0
tp35
a(g2
g4
F0.0
tp36
a(g2
g6
F0.0
tp37
a(g2
g8
F0.0
tp38
a(g2
g10
F0.0
tp39
a(g2
g12
F0.0
tp40
a(g2
g14
F0.0
tp41
a(g2
g16
F0.0
tp42
a(g2
g18
F0.0
tp43
a(g2
g20
I0
tp44
a(g2
g22
F0.0
tp45
a(g2
g24
F0.0
tp46
a(g2
g26
F0.0
tp47
a(g2
g28
F0.0
tp48
a(g2
g30
F0.0
tp49
a(g2
g32
F0.0
tp50
a(g2
g34
F0.0
tp51
a(g4
g6
F0.0
tp52
a(g4
g8
F0.0
tp53
a(g4
g10
F0.0
tp54
a(g4
g12
F0.0
tp55
a(g4
g14
F0.0
tp56
a(g4
g16
F0.0
tp57
a(g4
g18
F0.0
tp58
a(g4
g20
I0
tp59
a(g4
g22
F0.0
tp60
a(g4
g24
F0.0
tp61
a(g4
g26
F0.0
tp62
a(g4
g28
F0.30714285714285716
tp63
a(g4
g30
F0.0
tp64
a(g4
g32
F0.0
tp65
a(g4
g34
F0.0
tp66
a(g6
g8
F0.0
tp67
a(g6
g10
F0.0
tp68
a(g6
g12
F0.0
tp69
a(g6
g14
F0.0
tp70
a(g6
g16
F0.0
tp71
a(g6
g18
F1.0
tp72
a(g6
g20
I0
tp73
a(g6
g22
F0.0
tp74
a(g6
g24
F0.0
tp75
a(g6
g26
F0.0
tp76
a(g6
g28
F0.0
tp77
a(g6
g30
F0.0
tp78
a(g6
g32
F0.0
tp79
a(g6
g34
F0.0
tp80
a(g8
g10
F0.0
tp81
a(g8
g12
F0.0
tp82
a(g8
g14
F0.0
tp83
a(g8
g16
F0.0
tp84
a(g8
g18
F0.0
tp85
a(g8
g20
I0
tp86
a(g8
g22
F0.0
tp87
a(g8
g24
F0.0
tp88
a(g8
g26
F0.0
tp89
a(g8
g28
F0.0
tp90
a(g8
g30
F0.0
tp91
a(g8
g32
F0.0
tp92
a(g8
g34
F0.0
tp93
a(g10
g12
F0.0
tp94
a(g10
g14
F0.0
tp95
a(g10
g16
F0.0
tp96
a(g10
g18
F0.0
tp97
a(g10
g20
F0.3125
tp98
a(g10
g22
F0.0
tp99
a(g10
g24
F0.0
tp100
a(g10
g26
F0.0
tp101
a(g10
g28
F0.0
tp102
a(g10
g30
F0.0
tp103
a(g10
g32
F0.0
tp104
a(g10
g34
F0.0
tp105
a(g12
g14
F0.0
tp106
a(g12
g16
F0.0
tp107
a(g12
g18
F0.0
tp108
a(g12
g20
I0
tp109
a(g12
g22
F0.0
tp110
a(g12
g24
F0.0
tp111
a(g12
g26
F0.0
tp112
a(g12
g28
F0.0
tp113
a(g12
g30
F0.0
tp114
a(g12
g32
F0.0
tp115
a(g12
g34
F0.0
tp116
a(g14
g16
F0.0
tp117
a(g14
g18
F0.0
tp118
a(g14
g20
F0.3125
tp119
a(g14
g22
F0.0
tp120
a(g14
g24
F0.0
tp121
a(g14
g26
F0.0
tp122
a(g14
g28
F0.0
tp123
a(g14
g30
F0.0
tp124
a(g14
g32
F0.0
tp125
a(g14
g34
F0.0
tp126
a(g16
g18
F0.0
tp127
a(g16
g20
I0
tp128
a(g16
g22
F0.0
tp129
a(g16
g24
F0.0
tp130
a(g16
g26
F0.0
tp131
a(g16
g28
F0.0
tp132
a(g16
g30
F0.0
tp133
a(g16
g32
F0.0
tp134
a(g16
g34
F0.0
tp135
a(g18
g20
I0
tp136
a(g18
g22
F0.0
tp137
a(g18
g24
F0.0
tp138
a(g18
g26
F0.0
tp139
a(g18
g28
F0.0
tp140
a(g18
g30
F0.0
tp141
a(g18
g32
F0.0
tp142
a(g18
g34
F0.0
tp143
a(g20
g22
I0
tp144
a(g20
g24
I0
tp145
a(g20
g26
F0.3448275862068966
tp146
a(g20
g28
F0.0
tp147
a(g20
g30
I0
tp148
a(g20
g32
I0
tp149
a(g20
g34
I0
tp150
a(g22
g24
F0.0
tp151
a(g22
g26
F0.0
tp152
a(g22
g28
F0.0
tp153
a(g22
g30
F0.0
tp154
a(g22
g32
F0.0
tp155
a(g22
g34
F0.0
tp156
a(g24
g26
F0.0
tp157
a(g24
g28
F0.0
tp158
a(g24
g30
F0.0
tp159
a(g24
g32
F0.0
tp160
a(g24
g34
F1.0
tp161
a(g26
g28
F0.0
tp162
a(g26
g30
F0.0
tp163
a(g26
g32
F0.0
tp164
a(g26
g34
F0.0
tp165
a(g28
g30
F0.0
tp166
a(g28
g32
I0
tp167
a(g28
g34
F0.0
tp168
a(g30
g32
F0.0
tp169
a(g30
g34
F0.0
tp170
a(g32
g34
F0.0
tp171
a.(lp0
(lp1
S'/home/perseus/Academics/Sem-9/Thesis/Data/CodeForces/24/Correct/A18.c'
p2
aa(lp3
S'/home/perseus/Academics/Sem-9/Thesis/Data/CodeForces/24/Correct/A5.c'
p4
aS'/home/perseus/Academics/Sem-9/Thesis/Data/CodeForces/24/Correct/A4.c'
p5
aa(lp6
S'/home/perseus/Academics/Sem-9/Thesis/Data/CodeForces/24/Correct/A20.c'
p7
aa(lp8
S'/home/perseus/Academics/Sem-9/Thesis/Data/CodeForces/24/Correct/A10.c'
p9
aS'/home/perseus/Academics/Sem-9/Thesis/Data/CodeForces/24/Correct/A11.c'
p10
aS'/home/perseus/Academics/Sem-9/Thesis/Data/CodeForces/24/Correct/A14.c'
p11
aS'/home/perseus/Academics/Sem-9/Thesis/Data/CodeForces/24/Correct/A9.c'
p12
aS'/home/perseus/Academics/Sem-9/Thesis/Data/CodeForces/24/Correct/A15.c'
p13
aa(lp14
S'/home/perseus/Academics/Sem-9/Thesis/Data/CodeForces/24/Correct/A19.c'
p15
aa(lp16
S'/home/perseus/Academics/Sem-9/Thesis/Data/CodeForces/24/Correct/A12.c'
p17
aS'/home/perseus/Academics/Sem-9/Thesis/Data/CodeForces/24/Correct/A13.c'
p18
aa(lp19
S'/home/perseus/Academics/Sem-9/Thesis/Data/CodeForces/24/Correct/A17.c'
p20
aa(lp21
S'/home/perseus/Academics/Sem-9/Thesis/Data/CodeForces/24/Correct/A1.c'
p22
aa(lp23
S'/home/perseus/Academics/Sem-9/Thesis/Data/CodeForces/24/Correct/A6.c'
p24
aa(lp25
S'/home/perseus/Academics/Sem-9/Thesis/Data/CodeForces/24/Correct/A8.c'
p26
aa(lp27
S'/home/perseus/Academics/Sem-9/Thesis/Data/CodeForces/24/Correct/A3.c'
p28
aS'/home/perseus/Academics/Sem-9/Thesis/Data/CodeForces/24/Correct/A16.c'
p29
aa.(lp0
(S'/home/perseus/Academics/Sem-9/Thesis/Data/CodeForces/24/Incorrect/A14.c'
p1
F0.0
tp2
a(S'/home/perseus/Academics/Sem-9/Thesis/Data/CodeForces/24/Incorrect/A17.c'
p3
I0
tp4
a(S'/home/perseus/Academics/Sem-9/Thesis/Data/CodeForces/24/Incorrect/A21.c'
p5
F0.0
tp6
a(S'/home/perseus/Academics/Sem-9/Thesis/Data/CodeForces/24/Incorrect/A3.c'
p7
F99.41176470588235
tp8
a(S'/home/perseus/Academics/Sem-9/Thesis/Data/CodeForces/24/Incorrect/A5.c'
p9
F0.0
tp10
a(S'/home/perseus/Academics/Sem-9/Thesis/Data/CodeForces/24/Incorrect/A18.c'
p11
F35.08771929824561
tp12
a(S'/home/perseus/Academics/Sem-9/Thesis/Data/CodeForces/24/Incorrect/A9.c'
p13
F0.0
tp14
a(S'/home/perseus/Academics/Sem-9/Thesis/Data/CodeForces/24/Incorrect/A2.c'
p15
F99.41176470588235
tp16
a(S'/home/perseus/Academics/Sem-9/Thesis/Data/CodeForces/24/Incorrect/A6.c'
p17
F0.0
tp18
a(S'/home/perseus/Academics/Sem-9/Thesis/Data/CodeForces/24/Incorrect/A23.c'
p19
F0.0
tp20
a(S'/home/perseus/Academics/Sem-9/Thesis/Data/CodeForces/24/Incorrect/A15.c'
p21
F0.0
tp22
a(S'/home/perseus/Academics/Sem-9/Thesis/Data/CodeForces/24/Incorrect/A19.c'
p23
F0.0
tp24
a(S'/home/perseus/Academics/Sem-9/Thesis/Data/CodeForces/24/Incorrect/A4.c'
p25
F0.0
tp26
a(S'/home/perseus/Academics/Sem-9/Thesis/Data/CodeForces/24/Incorrect/A11.c'
p27
F0.0
tp28
a(S'/home/perseus/Academics/Sem-9/Thesis/Data/CodeForces/24/Incorrect/A8.c'
p29
F0.0
tp30
a(S'/home/perseus/Academics/Sem-9/Thesis/Data/CodeForces/24/Incorrect/A13.c'
p31
F0.0
tp32
a(S'/home/perseus/Academics/Sem-9/Thesis/Data/CodeForces/24/Incorrect/A24.c'
p33
F0.0
tp34
a(S'/home/perseus/Academics/Sem-9/Thesis/Data/CodeForces/24/Incorrect/A16.c'
p35
F0.0
tp36
a(S'/home/perseus/Academics/Sem-9/Thesis/Data/CodeForces/24/Incorrect/A22.c'
p37
F0.0
tp38
a(S'/home/perseus/Academics/Sem-9/Thesis/Data/CodeForces/24/Incorrect/A20.c'
p39
F0.0
tp40
a(S'/home/perseus/Academics/Sem-9/Thesis/Data/CodeForces/24/Incorrect/A25.c'
p41
F0.0
tp42
a(S'/home/perseus/Academics/Sem-9/Thesis/Data/CodeForces/24/Incorrect/A1.c'
p43
F99.41176470588235
tp44
a(S'/home/perseus/Academics/Sem-9/Thesis/Data/CodeForces/24/Incorrect/A7.c'
p45
F0.0
tp46
a(S'/home/perseus/Academics/Sem-9/Thesis/Data/CodeForces/24/Incorrect/A12.c'
p47
F0.0
tp48
a.