(lp0
(S'/home/perseus/Sem-9/Thesis/Data/CodeForces/5/Correct/A19.c'
p1
S'/home/perseus/Sem-9/Thesis/Data/CodeForces/5/Correct/A1.c'
p2
F0.8823529411764706
tp3
a(g1
S'/home/perseus/Sem-9/Thesis/Data/CodeForces/5/Correct/A3.c'
p4
F0.8108108108108109
tp5
a(g1
S'/home/perseus/Sem-9/Thesis/Data/CodeForces/5/Correct/A37.c'
p6
F0.0
tp7
a(g1
S'/home/perseus/Sem-9/Thesis/Data/CodeForces/5/Correct/A6.c'
p8
F0.9666666666666667
tp9
a(g1
S'/home/perseus/Sem-9/Thesis/Data/CodeForces/5/Correct/A26.c'
p10
F0.8108108108108109
tp11
a(g1
S'/home/perseus/Sem-9/Thesis/Data/CodeForces/5/Correct/A13.c'
p12
F0.0
tp13
a(g1
S'/home/perseus/Sem-9/Thesis/Data/CodeForces/5/Correct/A17.c'
p14
F0.0
tp15
a(g1
S'/home/perseus/Sem-9/Thesis/Data/CodeForces/5/Correct/A36.c'
p16
F0.3614457831325301
tp17
a(g1
S'/home/perseus/Sem-9/Thesis/Data/CodeForces/5/Correct/A28.c'
p18
F0.6
tp19
a(g1
S'/home/perseus/Sem-9/Thesis/Data/CodeForces/5/Correct/A24.c'
p20
F0.6521739130434783
tp21
a(g1
S'/home/perseus/Sem-9/Thesis/Data/CodeForces/5/Correct/A4.c'
p22
F0.0
tp23
a(g1
S'/home/perseus/Sem-9/Thesis/Data/CodeForces/5/Correct/A29.c'
p24
F0.8108108108108109
tp25
a(g1
S'/home/perseus/Sem-9/Thesis/Data/CodeForces/5/Correct/A5.c'
p26
F0.0
tp27
a(g1
S'/home/perseus/Sem-9/Thesis/Data/CodeForces/5/Correct/A22.c'
p28
F0.0
tp29
a(g1
S'/home/perseus/Sem-9/Thesis/Data/CodeForces/5/Correct/A14.c'
p30
F0.0
tp31
a(g1
S'/home/perseus/Sem-9/Thesis/Data/CodeForces/5/Correct/A34.c'
p32
F0.7894736842105263
tp33
a(g1
S'/home/perseus/Sem-9/Thesis/Data/CodeForces/5/Correct/A9.c'
p34
F0.9333333333333333
tp35
a(g1
S'/home/perseus/Sem-9/Thesis/Data/CodeForces/5/Correct/A2.c'
p36
F0.8823529411764706
tp37
a(g1
S'/home/perseus/Sem-9/Thesis/Data/CodeForces/5/Correct/A11.c'
p38
F0.7894736842105263
tp39
a(g1
S'/home/perseus/Sem-9/Thesis/Data/CodeForces/5/Correct/A25.c'
p40
F0.8333333333333334
tp41
a(g1
S'/home/perseus/Sem-9/Thesis/Data/CodeForces/5/Correct/A39.c'
p42
F0.0
tp43
a(g1
S'/home/perseus/Sem-9/Thesis/Data/CodeForces/5/Correct/A10.c'
p44
F0.0
tp45
a(g1
S'/home/perseus/Sem-9/Thesis/Data/CodeForces/5/Correct/A35.c'
p46
F0.0
tp47
a(g1
S'/home/perseus/Sem-9/Thesis/Data/CodeForces/5/Correct/A31.c'
p48
F0.5084745762711864
tp49
a(g1
S'/home/perseus/Sem-9/Thesis/Data/CodeForces/5/Correct/A7.c'
p50
F0.0
tp51
a(g1
S'/home/perseus/Sem-9/Thesis/Data/CodeForces/5/Correct/A12.c'
p52
F0.0
tp53
a(g1
S'/home/perseus/Sem-9/Thesis/Data/CodeForces/5/Correct/A38.c'
p54
F0.8571428571428571
tp55
a(g1
S'/home/perseus/Sem-9/Thesis/Data/CodeForces/5/Correct/A16.c'
p56
F0.9
tp57
a(g1
S'/home/perseus/Sem-9/Thesis/Data/CodeForces/5/Correct/A32.c'
p58
F0.4838709677419355
tp59
a(g1
S'/home/perseus/Sem-9/Thesis/Data/CodeForces/5/Correct/A18.c'
p60
F0.0
tp61
a(g1
S'/home/perseus/Sem-9/Thesis/Data/CodeForces/5/Correct/A23.c'
p62
F0.8571428571428571
tp63
a(g1
S'/home/perseus/Sem-9/Thesis/Data/CodeForces/5/Correct/A27.c'
p64
F0.46153846153846156
tp65
a(g1
S'/home/perseus/Sem-9/Thesis/Data/CodeForces/5/Correct/A33.c'
p66
F0.4838709677419355
tp67
a(g1
S'/home/perseus/Sem-9/Thesis/Data/CodeForces/5/Correct/A8.c'
p68
F0.0
tp69
a(g1
S'/home/perseus/Sem-9/Thesis/Data/CodeForces/5/Correct/A21.c'
p70
F0.7894736842105263
tp71
a(g1
S'/home/perseus/Sem-9/Thesis/Data/CodeForces/5/Correct/A20.c'
p72
F0.75
tp73
a(g1
S'/home/perseus/Sem-9/Thesis/Data/CodeForces/5/Correct/A15.c'
p74
F0.8666666666666667
tp75
a(g1
S'/home/perseus/Sem-9/Thesis/Data/CodeForces/5/Correct/A30.c'
p76
I0
tp77
a(g2
g4
F0.0
tp78
a(g2
g6
F0.0
tp79
a(g2
g8
F0.8529411764705882
tp80
a(g2
g10
F0.0
tp81
a(g2
g12
F0.8823529411764706
tp82
a(g2
g14
F0.9705882352941176
tp83
a(g2
g16
F0.40963855421686746
tp84
a(g2
g18
F0.0
tp85
a(g2
g20
F0.0
tp86
a(g2
g22
F0.9411764705882353
tp87
a(g2
g24
F0.0
tp88
a(g2
g26
F0.0
tp89
a(g2
g28
F0.9117647058823529
tp90
a(g2
g30
F0.9117647058823529
tp91
a(g2
g32
F0.0
tp92
a(g2
g34
F0.8235294117647058
tp93
a(g2
g36
F1.0
tp94
a(g2
g38
F0.0
tp95
a(g2
g40
F0.0
tp96
a(g2
g42
F0.8235294117647058
tp97
a(g2
g44
F0.0
tp98
a(g2
g46
F0.7941176470588235
tp99
a(g2
g48
F0.0
tp100
a(g2
g50
F0.9117647058823529
tp101
a(g2
g52
F0.6764705882352942
tp102
a(g2
g54
F0.9714285714285714
tp103
a(g2
g56
F0.7941176470588235
tp104
a(g2
g58
F0.0
tp105
a(g2
g60
F0.9411764705882353
tp106
a(g2
g62
F0.0
tp107
a(g2
g64
F0.0
tp108
a(g2
g66
F0.0
tp109
a(g2
g68
F0.0
tp110
a(g2
g70
F0.0
tp111
a(g2
g72
F0.0
tp112
a(g2
g74
F0.7647058823529411
tp113
a(g2
g76
F0.3177570093457944
tp114
a(g4
g6
F0.0
tp115
a(g4
g8
F0.7837837837837838
tp116
a(g4
g10
F0.0
tp117
a(g4
g12
F0.8108108108108109
tp118
a(g4
g14
F0.8918918918918919
tp119
a(g4
g16
F0.0
tp120
a(g4
g18
F0.0
tp121
a(g4
g20
F0.0
tp122
a(g4
g22
F0.8648648648648649
tp123
a(g4
g24
F0.0
tp124
a(g4
g26
F0.972972972972973
tp125
a(g4
g28
F0.8378378378378378
tp126
a(g4
g30
F0.8378378378378378
tp127
a(g4
g32
F0.0
tp128
a(g4
g34
F0.7567567567567568
tp129
a(g4
g36
F0.0
tp130
a(g4
g38
F0.0
tp131
a(g4
g40
F0.0
tp132
a(g4
g42
F0.7567567567567568
tp133
a(g4
g44
F0.0
tp134
a(g4
g46
F0.7297297297297297
tp135
a(g4
g48
F0.0
tp136
a(g4
g50
F0.8378378378378378
tp137
a(g4
g52
F0.6216216216216216
tp138
a(g4
g54
F0.0
tp139
a(g4
g56
F0.7297297297297297
tp140
a(g4
g58
F0.0
tp141
a(g4
g60
F0.8648648648648649
tp142
a(g4
g62
F0.0
tp143
a(g4
g64
F0.0
tp144
a(g4
g66
F0.0
tp145
a(g4
g68
F0.0
tp146
a(g4
g70
F0.0
tp147
a(g4
g72
F0.0
tp148
a(g4
g74
F0.7027027027027027
tp149
a(g4
g76
F0.0
tp150
a(g6
g8
F0.0
tp151
a(g6
g10
F0.0
tp152
a(g6
g12
F0.0
tp153
a(g6
g14
F0.0
tp154
a(g6
g16
F0.3373493975903614
tp155
a(g6
g18
F0.0
tp156
a(g6
g20
F0.0
tp157
a(g6
g22
F0.0
tp158
a(g6
g24
F0.0
tp159
a(g6
g26
F0.0
tp160
a(g6
g28
F0.0
tp161
a(g6
g30
F0.0
tp162
a(g6
g32
F0.0
tp163
a(g6
g34
F0.0
tp164
a(g6
g36
F0.0
tp165
a(g6
g38
F0.0
tp166
a(g6
g40
F0.0
tp167
a(g6
g42
F0.0
tp168
a(g6
g44
F0.0
tp169
a(g6
g46
F0.0
tp170
a(g6
g48
F0.0
tp171
a(g6
g50
F0.0
tp172
a(g6
g52
F0.8214285714285714
tp173
a(g6
g54
F0.0
tp174
a(g6
g56
F0.0
tp175
a(g6
g58
F0.0
tp176
a(g6
g60
F0.0
tp177
a(g6
g62
F0.0
tp178
a(g6
g64
F0.0
tp179
a(g6
g66
F0.0
tp180
a(g6
g68
F0.0
tp181
a(g6
g70
F0.0
tp182
a(g6
g72
F0.0
tp183
a(g6
g74
F0.0
tp184
a(g6
g76
I0
tp185
a(g8
g10
F0.7837837837837838
tp186
a(g8
g12
F0.0
tp187
a(g8
g14
F0.8787878787878788
tp188
a(g8
g16
F0.3493975903614458
tp189
a(g8
g18
F0.58
tp190
a(g8
g20
F0.6304347826086957
tp191
a(g8
g22
F0.90625
tp192
a(g8
g24
F0.7837837837837838
tp193
a(g8
g26
F0.8055555555555556
tp194
a(g8
g28
F0.9354838709677419
tp195
a(g8
g30
F0.9354838709677419
tp196
a(g8
g32
F0.7631578947368421
tp197
a(g8
g34
F0.0
tp198
a(g8
g36
F0.8529411764705882
tp199
a(g8
g38
F0.7631578947368421
tp200
a(g8
g40
F0.8055555555555556
tp201
a(g8
g42
F0.0
tp202
a(g8
g44
F0.8529411764705882
tp203
a(g8
g46
F0.0
tp204
a(g8
g48
F0.4915254237288136
tp205
a(g8
g50
F0.0
tp206
a(g8
g52
F0.0
tp207
a(g8
g54
F0.8285714285714286
tp208
a(g8
g56
F0.0
tp209
a(g8
g58
F0.46774193548387094
tp210
a(g8
g60
F0.90625
tp211
a(g8
g62
F0.8285714285714286
tp212
a(g8
g64
F0.4461538461538462
tp213
a(g8
g66
F0.46774193548387094
tp214
a(g8
g68
F0.5087719298245614
tp215
a(g8
g70
F0.7631578947368421
tp216
a(g8
g72
F0.725
tp217
a(g8
g74
F0.896551724137931
tp218
a(g8
g76
I0
tp219
a(g10
g12
F0.8108108108108109
tp220
a(g10
g14
F0.8918918918918919
tp221
a(g10
g16
F0.0
tp222
a(g10
g18
F0.0
tp223
a(g10
g20
F0.0
tp224
a(g10
g22
F0.8648648648648649
tp225
a(g10
g24
F0.0
tp226
a(g10
g26
F0.972972972972973
tp227
a(g10
g28
F0.8378378378378378
tp228
a(g10
g30
F0.8378378378378378
tp229
a(g10
g32
F0.0
tp230
a(g10
g34
F0.7567567567567568
tp231
a(g10
g36
F0.0
tp232
a(g10
g38
F0.0
tp233
a(g10
g40
F0.0
tp234
a(g10
g42
F0.7567567567567568
tp235
a(g10
g44
F0.918918918918919
tp236
a(g10
g46
F0.7297297297297297
tp237
a(g10
g48
F0.0
tp238
a(g10
g50
F0.8378378378378378
tp239
a(g10
g52
F0.6216216216216216
tp240
a(g10
g54
F0.0
tp241
a(g10
g56
F0.7297297297297297
tp242
a(g10
g58
F0.0
tp243
a(g10
g60
F0.8648648648648649
tp244
a(g10
g62
F0.0
tp245
a(g10
g64
F0.0
tp246
a(g10
g66
F0.0
tp247
a(g10
g68
F0.0
tp248
a(g10
g70
F0.0
tp249
a(g10
g72
F0.0
tp250
a(g10
g74
F0.7027027027027027
tp251
a(g10
g76
F0.0
tp252
a(g12
g14
F0.0
tp253
a(g12
g16
F0.3614457831325301
tp254
a(g12
g18
F0.6
tp255
a(g12
g20
F0.6521739130434783
tp256
a(g12
g22
F0.0
tp257
a(g12
g24
F0.8108108108108109
tp258
a(g12
g26
F0.8333333333333334
tp259
a(g12
g28
F0.0
tp260
a(g12
g30
F0.0
tp261
a(g12
g32
F0.7894736842105263
tp262
a(g12
g34
F0.9333333333333333
tp263
a(g12
g36
F0.8823529411764706
tp264
a(g12
g38
F0.7894736842105263
tp265
a(g12
g40
F0.8333333333333334
tp266
a(g12
g42
F0.0
tp267
a(g12
g44
F0.0
tp268
a(g12
g46
F0.0
tp269
a(g12
g48
F0.5084745762711864
tp270
a(g12
g50
F0.0
tp271
a(g12
g52
F0.0
tp272
a(g12
g54
F0.8571428571428571
tp273
a(g12
g56
F0.9
tp274
a(g12
g58
F0.4838709677419355
tp275
a(g12
g60
F0.0
tp276
a(g12
g62
F0.8571428571428571
tp277
a(g12
g64
F0.46153846153846156
tp278
a(g12
g66
F0.4838709677419355
tp279
a(g12
g68
F0.0
tp280
a(g12
g70
F0.7894736842105263
tp281
a(g12
g72
F0.75
tp282
a(g12
g74
F0.8666666666666667
tp283
a(g12
g76
I0
tp284
a(g14
g16
F0.39759036144578314
tp285
a(g14
g18
F0.66
tp286
a(g14
g20
F0.0
tp287
a(g14
g22
F0.0
tp288
a(g14
g24
F0.8918918918918919
tp289
a(g14
g26
F0.0
tp290
a(g14
g28
F0.0
tp291
a(g14
g30
F0.9393939393939394
tp292
a(g14
g32
F0.868421052631579
tp293
a(g14
g34
F0.0
tp294
a(g14
g36
F0.9705882352941176
tp295
a(g14
g38
F0.868421052631579
tp296
a(g14
g40
F0.9166666666666666
tp297
a(g14
g42
F0.0
tp298
a(g14
g44
F0.0
tp299
a(g14
g46
F0.0
tp300
a(g14
g48
F0.559322033898305
tp301
a(g14
g50
F0.0
tp302
a(g14
g52
F0.0
tp303
a(g14
g54
F0.9428571428571428
tp304
a(g14
g56
F0.8181818181818182
tp305
a(g14
g58
F0.532258064516129
tp306
a(g14
g60
F0.0
tp307
a(g14
g62
F0.9428571428571428
tp308
a(g14
g64
F0.5076923076923077
tp309
a(g14
g66
F0.532258064516129
tp310
a(g14
g68
F0.0
tp311
a(g14
g70
F0.868421052631579
tp312
a(g14
g72
F0.825
tp313
a(g14
g74
F0.7878787878787878
tp314
a(g14
g76
F0.308411214953271
tp315
a(g16
g18
F0.0
tp316
a(g16
g20
F0.0
tp317
a(g16
g22
F0.3855421686746988
tp318
a(g16
g24
F0.0
tp319
a(g16
g26
F0.43373493975903615
tp320
a(g16
g28
F0.37349397590361444
tp321
a(g16
g30
F0.37349397590361444
tp322
a(g16
g32
F0.0
tp323
a(g16
g34
F0.3373493975903614
tp324
a(g16
g36
F0.40963855421686746
tp325
a(g16
g38
F0.0
tp326
a(g16
g40
F0.0
tp327
a(g16
g42
F0.3373493975903614
tp328
a(g16
g44
F0.40963855421686746
tp329
a(g16
g46
F0.3253012048192771
tp330
a(g16
g48
F0.0
tp331
a(g16
g50
F0.37349397590361444
tp332
a(g16
g52
I0
tp333
a(g16
g54
F0.42168674698795183
tp334
a(g16
g56
F0.3253012048192771
tp335
a(g16
g58
F0.0
tp336
a(g16
g60
F0.3855421686746988
tp337
a(g16
g62
F0.0
tp338
a(g16
g64
F0.0
tp339
a(g16
g66
F0.0
tp340
a(g16
g68
F0.6867469879518072
tp341
a(g16
g70
F0.0
tp342
a(g16
g72
F0.0
tp343
a(g16
g74
F0.3132530120481928
tp344
a(g16
g76
F0.0
tp345
a(g18
g20
F0.0
tp346
a(g18
g22
F0.64
tp347
a(g18
g24
F0.0
tp348
a(g18
g26
F0.72
tp349
a(g18
g28
F0.62
tp350
a(g18
g30
F0.62
tp351
a(g18
g32
F0.0
tp352
a(g18
g34
F0.56
tp353
a(g18
g36
F0.0
tp354
a(g18
g38
F0.0
tp355
a(g18
g40
F0.0
tp356
a(g18
g42
F0.56
tp357
a(g18
g44
F0.68
tp358
a(g18
g46
F0.54
tp359
a(g18
g48
F0.0
tp360
a(g18
g50
F0.62
tp361
a(g18
g52
F0.46
tp362
a(g18
g54
F0.0
tp363
a(g18
g56
F0.54
tp364
a(g18
g58
F0.0
tp365
a(g18
g60
F0.64
tp366
a(g18
g62
F0.0
tp367
a(g18
g64
F0.0
tp368
a(g18
g66
F0.0
tp369
a(g18
g68
F0.0
tp370
a(g18
g70
F0.0
tp371
a(g18
g72
F0.0
tp372
a(g18
g74
F0.52
tp373
a(g18
g76
F0.0
tp374
a(g20
g22
F0.6956521739130435
tp375
a(g20
g24
F0.0
tp376
a(g20
g26
F0.0
tp377
a(g20
g28
F0.6739130434782609
tp378
a(g20
g30
F0.6739130434782609
tp379
a(g20
g32
F0.0
tp380
a(g20
g34
F0.6086956521739131
tp381
a(g20
g36
F0.0
tp382
a(g20
g38
F0.0
tp383
a(g20
g40
F0.0
tp384
a(g20
g42
F0.6086956521739131
tp385
a(g20
g44
F0.0
tp386
a(g20
g46
F0.5869565217391305
tp387
a(g20
g48
F0.0
tp388
a(g20
g50
F0.6739130434782609
tp389
a(g20
g52
F0.5
tp390
a(g20
g54
F0.0
tp391
a(g20
g56
F0.5869565217391305
tp392
a(g20
g58
F0.0
tp393
a(g20
g60
F0.6956521739130435
tp394
a(g20
g62
F0.0
tp395
a(g20
g64
F0.0
tp396
a(g20
g66
F0.0
tp397
a(g20
g68
F0.0
tp398
a(g20
g70
F0.0
tp399
a(g20
g72
F0.0
tp400
a(g20
g74
F0.5652173913043478
tp401
a(g20
g76
F0.0
tp402
a(g22
g24
F0.8648648648648649
tp403
a(g22
g26
F0.8888888888888888
tp404
a(g22
g28
F0.0
tp405
a(g22
g30
F0.96875
tp406
a(g22
g32
F0.8421052631578947
tp407
a(g22
g34
F0.875
tp408
a(g22
g36
F0.9411764705882353
tp409
a(g22
g38
F0.8421052631578947
tp410
a(g22
g40
F0.8888888888888888
tp411
a(g22
g42
F0.0
tp412
a(g22
g44
F0.0
tp413
a(g22
g46
F0.0
tp414
a(g22
g48
F0.5423728813559322
tp415
a(g22
g50
F0.0
tp416
a(g22
g52
F0.0
tp417
a(g22
g54
F0.9142857142857143
tp418
a(g22
g56
F0.84375
tp419
a(g22
g58
F0.5161290322580645
tp420
a(g22
g60
F0.0
tp421
a(g22
g62
F0.9142857142857143
tp422
a(g22
g64
F0.49230769230769234
tp423
a(g22
g66
F0.5161290322580645
tp424
a(g22
g68
F0.0
tp425
a(g22
g70
F0.8421052631578947
tp426
a(g22
g72
F0.8
tp427
a(g22
g74
F0.8125
tp428
a(g22
g76
I0
tp429
a(g24
g26
F0.972972972972973
tp430
a(g24
g28
F0.8378378378378378
tp431
a(g24
g30
F0.8378378378378378
tp432
a(g24
g32
F0.0
tp433
a(g24
g34
F0.7567567567567568
tp434
a(g24
g36
F0.0
tp435
a(g24
g38
F0.9736842105263158
tp436
a(g24
g40
F0.0
tp437
a(g24
g42
F0.7567567567567568
tp438
a(g24
g44
F0.918918918918919
tp439
a(g24
g46
F0.7297297297297297
tp440
a(g24
g48
F0.0
tp441
a(g24
g50
F0.8378378378378378
tp442
a(g24
g52
F0.6216216216216216
tp443
a(g24
g54
F0.0
tp444
a(g24
g56
F0.7297297297297297
tp445
a(g24
g58
F0.0
tp446
a(g24
g60
F0.8648648648648649
tp447
a(g24
g62
F0.0
tp448
a(g24
g64
F0.0
tp449
a(g24
g66
F0.0
tp450
a(g24
g68
F0.0
tp451
a(g24
g70
F0.0
tp452
a(g24
g72
F0.0
tp453
a(g24
g74
F0.7027027027027027
tp454
a(g24
g76
F0.0
tp455
a(g26
g28
F0.8611111111111112
tp456
a(g26
g30
F0.8611111111111112
tp457
a(g26
g32
F0.9473684210526315
tp458
a(g26
g34
F0.7777777777777778
tp459
a(g26
g36
F0.0
tp460
a(g26
g38
F0.9473684210526315
tp461
a(g26
g40
F1.0
tp462
a(g26
g42
F0.7777777777777778
tp463
a(g26
g44
F0.0
tp464
a(g26
g46
F0.75
tp465
a(g26
g48
F0.0
tp466
a(g26
g50
F0.0
tp467
a(g26
g52
F0.0
tp468
a(g26
g54
F0.0
tp469
a(g26
g56
F0.75
tp470
a(g26
g58
F0.0
tp471
a(g26
g60
F0.8888888888888888
tp472
a(g26
g62
F0.0
tp473
a(g26
g64
F0.5538461538461539
tp474
a(g26
g66
F0.0
tp475
a(g26
g68
F0.0
tp476
a(g26
g70
F0.9473684210526315
tp477
a(g26
g72
F0.9
tp478
a(g26
g74
F0.7222222222222222
tp479
a(g26
g76
F0.3364485981308411
tp480
a(g28
g30
F0.0
tp481
a(g28
g32
F0.8157894736842105
tp482
a(g28
g34
F0.0
tp483
a(g28
g36
F0.9117647058823529
tp484
a(g28
g38
F0.8157894736842105
tp485
a(g28
g40
F0.8611111111111112
tp486
a(g28
g42
F0.9032258064516129
tp487
a(g28
g44
F0.0
tp488
a(g28
g46
F0.0
tp489
a(g28
g48
F0.5254237288135594
tp490
a(g28
g50
F0.0
tp491
a(g28
g52
F0.0
tp492
a(g28
g54
F0.8857142857142857
tp493
a(g28
g56
F0.8709677419354839
tp494
a(g28
g58
F0.5
tp495
a(g28
g60
F0.96875
tp496
a(g28
g62
F0.8857142857142857
tp497
a(g28
g64
F0.47692307692307695
tp498
a(g28
g66
F0.5
tp499
a(g28
g68
F0.0
tp500
a(g28
g70
F0.8157894736842105
tp501
a(g28
g72
F0.775
tp502
a(g28
g74
F0.8387096774193549
tp503
a(g28
g76
I0
tp504
a(g30
g32
F0.8157894736842105
tp505
a(g30
g34
F0.0
tp506
a(g30
g36
F0.9117647058823529
tp507
a(g30
g38
F0.8157894736842105
tp508
a(g30
g40
F0.8611111111111112
tp509
a(g30
g42
F0.0
tp510
a(g30
g44
F0.9117647058823529
tp511
a(g30
g46
F0.0
tp512
a(g30
g48
F0.5254237288135594
tp513
a(g30
g50
F0.0
tp514
a(g30
g52
F0.0
tp515
a(g30
g54
F0.8857142857142857
tp516
a(g30
g56
F0.0
tp517
a(g30
g58
F0.5
tp518
a(g30
g60
F0.96875
tp519
a(g30
g62
F0.8857142857142857
tp520
a(g30
g64
F0.47692307692307695
tp521
a(g30
g66
F0.5
tp522
a(g30
g68
F0.543859649122807
tp523
a(g30
g70
F0.8157894736842105
tp524
a(g30
g72
F0.775
tp525
a(g30
g74
F0.8387096774193549
tp526
a(g30
g76
I0
tp527
a(g32
g34
F0.7368421052631579
tp528
a(g32
g36
F0.0
tp529
a(g32
g38
F0.0
tp530
a(g32
g40
F0.0
tp531
a(g32
g42
F0.7368421052631579
tp532
a(g32
g44
F0.8947368421052632
tp533
a(g32
g46
F0.7105263157894737
tp534
a(g32
g48
F0.0
tp535
a(g32
g50
F0.8157894736842105
tp536
a(g32
g52
F0.6052631578947368
tp537
a(g32
g54
F0.0
tp538
a(g32
g56
F0.7105263157894737
tp539
a(g32
g58
F0.0
tp540
a(g32
g60
F0.8421052631578947
tp541
a(g32
g62
F0.0
tp542
a(g32
g64
F0.0
tp543
a(g32
g66
F0.0
tp544
a(g32
g68
F0.0
tp545
a(g32
g70
F0.0
tp546
a(g32
g72
F0.0
tp547
a(g32
g74
F0.6842105263157895
tp548
a(g32
g76
F0.0
tp549
a(g34
g36
F0.8235294117647058
tp550
a(g34
g38
F0.7368421052631579
tp551
a(g34
g40
F0.7777777777777778
tp552
a(g34
g42
F0.0
tp553
a(g34
g44
F0.0
tp554
a(g34
g46
F0.0
tp555
a(g34
g48
F0.4745762711864407
tp556
a(g34
g50
F0.0
tp557
a(g34
g52
F0.0
tp558
a(g34
g54
F0.8
tp559
a(g34
g56
F0.9642857142857143
tp560
a(g34
g58
F0.45161290322580644
tp561
a(g34
g60
F0.0
tp562
a(g34
g62
F0.8
tp563
a(g34
g64
F0.4307692307692308
tp564
a(g34
g66
F0.45161290322580644
tp565
a(g34
g68
F0.0
tp566
a(g34
g70
F0.7368421052631579
tp567
a(g34
g72
F0.7
tp568
a(g34
g74
F0.9285714285714286
tp569
a(g34
g76
I0
tp570
a(g36
g38
F0.0
tp571
a(g36
g40
F0.0
tp572
a(g36
g42
F0.8235294117647058
tp573
a(g36
g44
F0.0
tp574
a(g36
g46
F0.7941176470588235
tp575
a(g36
g48
F0.0
tp576
a(g36
g50
F0.9117647058823529
tp577
a(g36
g52
F0.6764705882352942
tp578
a(g36
g54
F0.9714285714285714
tp579
a(g36
g56
F0.7941176470588235
tp580
a(g36
g58
F0.0
tp581
a(g36
g60
F0.9411764705882353
tp582
a(g36
g62
F0.0
tp583
a(g36
g64
F0.0
tp584
a(g36
g66
F0.0
tp585
a(g36
g68
F0.0
tp586
a(g36
g70
F0.0
tp587
a(g36
g72
F0.0
tp588
a(g36
g74
F0.7647058823529411
tp589
a(g36
g76
F0.3177570093457944
tp590
a(g38
g40
F0.0
tp591
a(g38
g42
F0.7368421052631579
tp592
a(g38
g44
F0.8947368421052632
tp593
a(g38
g46
F0.7105263157894737
tp594
a(g38
g48
F0.0
tp595
a(g38
g50
F0.8157894736842105
tp596
a(g38
g52
F0.6052631578947368
tp597
a(g38
g54
F0.0
tp598
a(g38
g56
F0.7105263157894737
tp599
a(g38
g58
F0.0
tp600
a(g38
g60
F0.8421052631578947
tp601
a(g38
g62
F0.0
tp602
a(g38
g64
F0.0
tp603
a(g38
g66
F0.0
tp604
a(g38
g68
F0.0
tp605
a(g38
g70
F0.0
tp606
a(g38
g72
F0.0
tp607
a(g38
g74
F0.6842105263157895
tp608
a(g38
g76
F0.0
tp609
a(g40
g42
F0.7777777777777778
tp610
a(g40
g44
F0.9444444444444444
tp611
a(g40
g46
F0.75
tp612
a(g40
g48
F0.0
tp613
a(g40
g50
F0.8611111111111112
tp614
a(g40
g52
F0.6388888888888888
tp615
a(g40
g54
F0.0
tp616
a(g40
g56
F0.75
tp617
a(g40
g58
F0.0
tp618
a(g40
g60
F0.8888888888888888
tp619
a(g40
g62
F0.0
tp620
a(g40
g64
F0.0
tp621
a(g40
g66
F0.0
tp622
a(g40
g68
F0.0
tp623
a(g40
g70
F0.0
tp624
a(g40
g72
F0.0
tp625
a(g40
g74
F0.7222222222222222
tp626
a(g40
g76
F0.0
tp627
a(g42
g44
F0.8235294117647058
tp628
a(g42
g46
F0.0
tp629
a(g42
g48
F0.4745762711864407
tp630
a(g42
g50
F0.0
tp631
a(g42
g52
F0.0
tp632
a(g42
g54
F0.8
tp633
a(g42
g56
F0.0
tp634
a(g42
g58
F0.45161290322580644
tp635
a(g42
g60
F0.875
tp636
a(g42
g62
F0.8
tp637
a(g42
g64
F0.4307692307692308
tp638
a(g42
g66
F0.45161290322580644
tp639
a(g42
g68
F0.49122807017543857
tp640
a(g42
g70
F0.7368421052631579
tp641
a(g42
g72
F0.7
tp642
a(g42
g74
F0.0
tp643
a(g42
g76
I0
tp644
a(g44
g46
F0.7941176470588235
tp645
a(g44
g48
F0.0
tp646
a(g44
g50
F0.0
tp647
a(g44
g52
F0.0
tp648
a(g44
g54
F0.9714285714285714
tp649
a(g44
g56
F0.7941176470588235
tp650
a(g44
g58
F0.0
tp651
a(g44
g60
F0.0
tp652
a(g44
g62
F0.0
tp653
a(g44
g64
F0.5230769230769231
tp654
a(g44
g66
F0.0
tp655
a(g44
g68
F0.0
tp656
a(g44
g70
F0.8947368421052632
tp657
a(g44
g72
F0.85
tp658
a(g44
g74
F0.7647058823529411
tp659
a(g44
g76
F0.3177570093457944
tp660
a(g46
g48
F0.4576271186440678
tp661
a(g46
g50
F0.0
tp662
a(g46
g52
F0.0
tp663
a(g46
g54
F0.7714285714285715
tp664
a(g46
g56
F0.0
tp665
a(g46
g58
F0.43548387096774194
tp666
a(g46
g60
F0.0
tp667
a(g46
g62
F0.7714285714285715
tp668
a(g46
g64
F0.4153846153846154
tp669
a(g46
g66
F0.43548387096774194
tp670
a(g46
g68
F0.0
tp671
a(g46
g70
F0.7105263157894737
tp672
a(g46
g72
F0.675
tp673
a(g46
g74
F0.0
tp674
a(g46
g76
I0
tp675
a(g48
g50
F0.5254237288135594
tp676
a(g48
g52
F0.3898305084745763
tp677
a(g48
g54
F0.0
tp678
a(g48
g56
F0.4576271186440678
tp679
a(g48
g58
F0.9516129032258065
tp680
a(g48
g60
F0.5423728813559322
tp681
a(g48
g62
F0.0
tp682
a(g48
g64
F0.0
tp683
a(g48
g66
F0.9516129032258065
tp684
a(g48
g68
F0.0
tp685
a(g48
g70
F0.0
tp686
a(g48
g72
F0.0
tp687
a(g48
g74
F0.4406779661016949
tp688
a(g48
g76
F0.0
tp689
a(g50
g52
F0.0
tp690
a(g50
g54
F0.8857142857142857
tp691
a(g50
g56
F0.0
tp692
a(g50
g58
F0.5
tp693
a(g50
g60
F0.0
tp694
a(g50
g62
F0.8857142857142857
tp695
a(g50
g64
F0.47692307692307695
tp696
a(g50
g66
F0.5
tp697
a(g50
g68
F0.0
tp698
a(g50
g70
F0.8157894736842105
tp699
a(g50
g72
F0.775
tp700
a(g50
g74
F0.0
tp701
a(g50
g76
I0
tp702
a(g52
g54
F0.6571428571428571
tp703
a(g52
g56
F0.0
tp704
a(g52
g58
F0.3709677419354839
tp705
a(g52
g60
F0.0
tp706
a(g52
g62
F0.6571428571428571
tp707
a(g52
g64
F0.35384615384615387
tp708
a(g52
g66
F0.3709677419354839
tp709
a(g52
g68
F0.0
tp710
a(g52
g70
F0.6052631578947368
tp711
a(g52
g72
F0.575
tp712
a(g52
g74
F0.0
tp713
a(g52
g76
I0
tp714
a(g54
g56
F0.7714285714285715
tp715
a(g54
g58
F0.0
tp716
a(g54
g60
F0.9142857142857143
tp717
a(g54
g62
F0.0
tp718
a(g54
g64
F0.0
tp719
a(g54
g66
F0.0
tp720
a(g54
g68
F0.0
tp721
a(g54
g70
F0.0
tp722
a(g54
g72
F0.0
tp723
a(g54
g74
F0.7428571428571429
tp724
a(g54
g76
F0.32710280373831774
tp725
a(g56
g58
F0.43548387096774194
tp726
a(g56
g60
F0.84375
tp727
a(g56
g62
F0.7714285714285715
tp728
a(g56
g64
F0.4153846153846154
tp729
a(g56
g66
F0.43548387096774194
tp730
a(g56
g68
F0.47368421052631576
tp731
a(g56
g70
F0.7105263157894737
tp732
a(g56
g72
F0.675
tp733
a(g56
g74
F0.9629629629629629
tp734
a(g56
g76
I0
tp735
a(g58
g60
F0.5161290322580645
tp736
a(g58
g62
F0.0
tp737
a(g58
g64
F0.0
tp738
a(g58
g66
F1.0
tp739
a(g58
g68
F0.0
tp740
a(g58
g70
F0.0
tp741
a(g58
g72
F0.0
tp742
a(g58
g74
F0.41935483870967744
tp743
a(g58
g76
F0.0
tp744
a(g60
g62
F0.9142857142857143
tp745
a(g60
g64
F0.49230769230769234
tp746
a(g60
g66
F0.5161290322580645
tp747
a(g60
g68
F0.0
tp748
a(g60
g70
F0.8421052631578947
tp749
a(g60
g72
F0.8
tp750
a(g60
g74
F0.8125
tp751
a(g60
g76
I0
tp752
a(g62
g64
F0.0
tp753
a(g62
g66
F0.0
tp754
a(g62
g68
F0.0
tp755
a(g62
g70
F0.0
tp756
a(g62
g72
F0.0
tp757
a(g62
g74
F0.7428571428571429
tp758
a(g62
g76
F0.0
tp759
a(g64
g66
F0.0
tp760
a(g64
g68
F0.0
tp761
a(g64
g70
F0.0
tp762
a(g64
g72
F0.0
tp763
a(g64
g74
F0.4
tp764
a(g64
g76
F0.0
tp765
a(g66
g68
F0.0
tp766
a(g66
g70
F0.0
tp767
a(g66
g72
F0.0
tp768
a(g66
g74
F0.41935483870967744
tp769
a(g66
g76
F0.0
tp770
a(g68
g70
F0.0
tp771
a(g68
g72
F0.0
tp772
a(g68
g74
F0.45614035087719296
tp773
a(g68
g76
F0.5327102803738317
tp774
a(g70
g72
F0.0
tp775
a(g70
g74
F0.6842105263157895
tp776
a(g70
g76
F0.0
tp777
a(g72
g74
F0.65
tp778
a(g72
g76
F0.0
tp779
a(g74
g76
I0
tp780
a.(lp0
(lp1
S'/home/perseus/Sem-9/Thesis/Data/CodeForces/5/Correct/A3.c'
p2
aS'/home/perseus/Sem-9/Thesis/Data/CodeForces/5/Correct/A29.c'
p3
aS'/home/perseus/Sem-9/Thesis/Data/CodeForces/5/Correct/A22.c'
p4
aS'/home/perseus/Sem-9/Thesis/Data/CodeForces/5/Correct/A25.c'
p5
aS'/home/perseus/Sem-9/Thesis/Data/CodeForces/5/Correct/A28.c'
p6
aS'/home/perseus/Sem-9/Thesis/Data/CodeForces/5/Correct/A5.c'
p7
aS'/home/perseus/Sem-9/Thesis/Data/CodeForces/5/Correct/A39.c'
p8
aS'/home/perseus/Sem-9/Thesis/Data/CodeForces/5/Correct/A18.c'
p9
aS'/home/perseus/Sem-9/Thesis/Data/CodeForces/5/Correct/A7.c'
p10
aS'/home/perseus/Sem-9/Thesis/Data/CodeForces/5/Correct/A35.c'
p11
aS'/home/perseus/Sem-9/Thesis/Data/CodeForces/5/Correct/A21.c'
p12
aS'/home/perseus/Sem-9/Thesis/Data/CodeForces/5/Correct/A6.c'
p13
aS'/home/perseus/Sem-9/Thesis/Data/CodeForces/5/Correct/A20.c'
p14
aS'/home/perseus/Sem-9/Thesis/Data/CodeForces/5/Correct/A10.c'
p15
aS'/home/perseus/Sem-9/Thesis/Data/CodeForces/5/Correct/A11.c'
p16
aS'/home/perseus/Sem-9/Thesis/Data/CodeForces/5/Correct/A26.c'
p17
aS'/home/perseus/Sem-9/Thesis/Data/CodeForces/5/Correct/A27.c'
p18
aa(lp19
S'/home/perseus/Sem-9/Thesis/Data/CodeForces/5/Correct/A2.c'
p20
aS'/home/perseus/Sem-9/Thesis/Data/CodeForces/5/Correct/A36.c'
p21
aS'/home/perseus/Sem-9/Thesis/Data/CodeForces/5/Correct/A1.c'
p22
aS'/home/perseus/Sem-9/Thesis/Data/CodeForces/5/Correct/A23.c'
p23
aS'/home/perseus/Sem-9/Thesis/Data/CodeForces/5/Correct/A4.c'
p24
aS'/home/perseus/Sem-9/Thesis/Data/CodeForces/5/Correct/A8.c'
p25
aS'/home/perseus/Sem-9/Thesis/Data/CodeForces/5/Correct/A24.c'
p26
aS'/home/perseus/Sem-9/Thesis/Data/CodeForces/5/Correct/A13.c'
p27
aS'/home/perseus/Sem-9/Thesis/Data/CodeForces/5/Correct/A19.c'
p28
aS'/home/perseus/Sem-9/Thesis/Data/CodeForces/5/Correct/A16.c'
p29
aS'/home/perseus/Sem-9/Thesis/Data/CodeForces/5/Correct/A30.c'
p30
aS'/home/perseus/Sem-9/Thesis/Data/CodeForces/5/Correct/A15.c'
p31
aS'/home/perseus/Sem-9/Thesis/Data/CodeForces/5/Correct/A9.c'
p32
aS'/home/perseus/Sem-9/Thesis/Data/CodeForces/5/Correct/A38.c'
p33
aa(lp34
S'/home/perseus/Sem-9/Thesis/Data/CodeForces/5/Correct/A14.c'
p35
aS'/home/perseus/Sem-9/Thesis/Data/CodeForces/5/Correct/A33.c'
p36
aS'/home/perseus/Sem-9/Thesis/Data/CodeForces/5/Correct/A32.c'
p37
aS'/home/perseus/Sem-9/Thesis/Data/CodeForces/5/Correct/A17.c'
p38
aS'/home/perseus/Sem-9/Thesis/Data/CodeForces/5/Correct/A31.c'
p39
aa(lp40
S'/home/perseus/Sem-9/Thesis/Data/CodeForces/5/Correct/A34.c'
p41
aS'/home/perseus/Sem-9/Thesis/Data/CodeForces/5/Correct/A12.c'
p42
aS'/home/perseus/Sem-9/Thesis/Data/CodeForces/5/Correct/A37.c'
p43
aa.(lp0
(S'/home/perseus/Sem-9/Thesis/Data/CodeForces/5/Incorrect/A19.c'
p1
F100.0
tp2
a(S'/home/perseus/Sem-9/Thesis/Data/CodeForces/5/Incorrect/A1.c'
p3
F80.55555555555556
tp4
a(S'/home/perseus/Sem-9/Thesis/Data/CodeForces/5/Incorrect/A3.c'
p5
F82.85714285714286
tp6
a(S'/home/perseus/Sem-9/Thesis/Data/CodeForces/5/Incorrect/A37.c'
p7
F46.03174603174603
tp8
a(S'/home/perseus/Sem-9/Thesis/Data/CodeForces/5/Incorrect/A40.c'
p9
F55.769230769230774
tp10
a(S'/home/perseus/Sem-9/Thesis/Data/CodeForces/5/Incorrect/A6.c'
p11
F56.86274509803921
tp12
a(S'/home/perseus/Sem-9/Thesis/Data/CodeForces/5/Incorrect/A26.c'
p13
F89.65517241379311
tp14
a(S'/home/perseus/Sem-9/Thesis/Data/CodeForces/5/Incorrect/A13.c'
p15
F57.99999999999999
tp16
a(S'/home/perseus/Sem-9/Thesis/Data/CodeForces/5/Incorrect/A17.c'
p17
F60.416666666666664
tp18
a(S'/home/perseus/Sem-9/Thesis/Data/CodeForces/5/Incorrect/A48.c'
p19
F47.82608695652174
tp20
a(S'/home/perseus/Sem-9/Thesis/Data/CodeForces/5/Incorrect/A36.c'
p21
F46.03174603174603
tp22
a(S'/home/perseus/Sem-9/Thesis/Data/CodeForces/5/Incorrect/A28.c'
p23
F35.80246913580247
tp24
a(S'/home/perseus/Sem-9/Thesis/Data/CodeForces/5/Incorrect/A24.c'
p25
F47.45762711864407
tp26
a(S'/home/perseus/Sem-9/Thesis/Data/CodeForces/5/Incorrect/A4.c'
p27
F45.78313253012048
tp28
a(S'/home/perseus/Sem-9/Thesis/Data/CodeForces/5/Incorrect/A29.c'
p29
F35.80246913580247
tp30
a(S'/home/perseus/Sem-9/Thesis/Data/CodeForces/5/Incorrect/A5.c'
p31
F76.31578947368422
tp32
a(S'/home/perseus/Sem-9/Thesis/Data/CodeForces/5/Incorrect/A22.c'
p33
F78.37837837837837
tp34
a(S'/home/perseus/Sem-9/Thesis/Data/CodeForces/5/Incorrect/A14.c'
p35
F57.99999999999999
tp36
a(S'/home/perseus/Sem-9/Thesis/Data/CodeForces/5/Incorrect/A34.c'
p37
F74.35897435897436
tp38
a(S'/home/perseus/Sem-9/Thesis/Data/CodeForces/5/Incorrect/A9.c'
p39
F96.55172413793103
tp40
a(S'/home/perseus/Sem-9/Thesis/Data/CodeForces/5/Incorrect/A2.c'
p41
F80.55555555555556
tp42
a(S'/home/perseus/Sem-9/Thesis/Data/CodeForces/5/Incorrect/A11.c'
p43
F64.44444444444444
tp44
a(S'/home/perseus/Sem-9/Thesis/Data/CodeForces/5/Incorrect/A25.c'
p45
F42.3728813559322
tp46
a(S'/home/perseus/Sem-9/Thesis/Data/CodeForces/5/Incorrect/A45.c'
p47
F72.5
tp48
a(S'/home/perseus/Sem-9/Thesis/Data/CodeForces/5/Incorrect/A39.c'
p49
F71.08433734939759
tp50
a(S'/home/perseus/Sem-9/Thesis/Data/CodeForces/5/Incorrect/A10.c'
p51
F47.45762711864407
tp52
a(S'/home/perseus/Sem-9/Thesis/Data/CodeForces/5/Incorrect/A35.c'
p53
F33.734939759036145
tp54
a(S'/home/perseus/Sem-9/Thesis/Data/CodeForces/5/Incorrect/A31.c'
p55
F72.5
tp56
a(S'/home/perseus/Sem-9/Thesis/Data/CodeForces/5/Incorrect/A49.c'
p57
F59.183673469387756
tp58
a(S'/home/perseus/Sem-9/Thesis/Data/CodeForces/5/Incorrect/A47.c'
p59
F65.9090909090909
tp60
a(S'/home/perseus/Sem-9/Thesis/Data/CodeForces/5/Incorrect/A7.c'
p61
F63.04347826086957
tp62
a(S'/home/perseus/Sem-9/Thesis/Data/CodeForces/5/Incorrect/A12.c'
p63
F60.416666666666664
tp64
a(S'/home/perseus/Sem-9/Thesis/Data/CodeForces/5/Incorrect/A41.c'
p65
F50.877192982456144
tp66
a(S'/home/perseus/Sem-9/Thesis/Data/CodeForces/5/Incorrect/A43.c'
p67
F43.28358208955223
tp68
a(S'/home/perseus/Sem-9/Thesis/Data/CodeForces/5/Incorrect/A50.c'
p69
F59.183673469387756
tp70
a(S'/home/perseus/Sem-9/Thesis/Data/CodeForces/5/Incorrect/A38.c'
p71
F46.03174603174603
tp72
a(S'/home/perseus/Sem-9/Thesis/Data/CodeForces/5/Incorrect/A16.c'
p73
F57.99999999999999
tp74
a(S'/home/perseus/Sem-9/Thesis/Data/CodeForces/5/Incorrect/A32.c'
p75
I0
tp76
a(S'/home/perseus/Sem-9/Thesis/Data/CodeForces/5/Incorrect/A18.c'
p77
F63.04347826086957
tp78
a(S'/home/perseus/Sem-9/Thesis/Data/CodeForces/5/Incorrect/A51.c'
p79
F70.73170731707317
tp80
a(S'/home/perseus/Sem-9/Thesis/Data/CodeForces/5/Incorrect/A23.c'
p81
F80.55555555555556
tp82
a(S'/home/perseus/Sem-9/Thesis/Data/CodeForces/5/Incorrect/A27.c'
p83
F50.847457627118644
tp84
a(S'/home/perseus/Sem-9/Thesis/Data/CodeForces/5/Incorrect/A33.c'
p85
F70.73170731707317
tp86
a(S'/home/perseus/Sem-9/Thesis/Data/CodeForces/5/Incorrect/A46.c'
p87
F65.9090909090909
tp88
a(S'/home/perseus/Sem-9/Thesis/Data/CodeForces/5/Incorrect/A44.c'
p89
F72.5
tp90
a(S'/home/perseus/Sem-9/Thesis/Data/CodeForces/5/Incorrect/A8.c'
p91
F93.54838709677419
tp92
a(S'/home/perseus/Sem-9/Thesis/Data/CodeForces/5/Incorrect/A21.c'
p93
F89.65517241379311
tp94
a(S'/home/perseus/Sem-9/Thesis/Data/CodeForces/5/Incorrect/A20.c'
p95
F86.95652173913044
tp96
a(S'/home/perseus/Sem-9/Thesis/Data/CodeForces/5/Incorrect/A15.c'
p97
F72.41379310344827
tp98
a(S'/home/perseus/Sem-9/Thesis/Data/CodeForces/5/Incorrect/A42.c'
p99
F53.70370370370371
tp100
a(S'/home/perseus/Sem-9/Thesis/Data/CodeForces/5/Incorrect/A30.c'
p101
F80.55555555555556
tp102
a.