(lp0
(S'/home/perseus/Sem-9/Thesis/Data/CodeForces/8/Correct/A1.c'
p1
S'/home/perseus/Sem-9/Thesis/Data/CodeForces/8/Correct/A3.c'
p2
I0
tp3
a(g1
S'/home/perseus/Sem-9/Thesis/Data/CodeForces/8/Correct/A6.c'
p4
F0.3409090909090909
tp5
a(g1
S'/home/perseus/Sem-9/Thesis/Data/CodeForces/8/Correct/A13.c'
p6
I0
tp7
a(g1
S'/home/perseus/Sem-9/Thesis/Data/CodeForces/8/Correct/A4.c'
p8
F0.35294117647058826
tp9
a(g1
S'/home/perseus/Sem-9/Thesis/Data/CodeForces/8/Correct/A5.c'
p10
F0.0
tp11
a(g1
S'/home/perseus/Sem-9/Thesis/Data/CodeForces/8/Correct/A9.c'
p12
I0
tp13
a(g1
S'/home/perseus/Sem-9/Thesis/Data/CodeForces/8/Correct/A2.c'
p14
F0.9666666666666667
tp15
a(g1
S'/home/perseus/Sem-9/Thesis/Data/CodeForces/8/Correct/A11.c'
p16
F0.0
tp17
a(g1
S'/home/perseus/Sem-9/Thesis/Data/CodeForces/8/Correct/A10.c'
p18
I0
tp19
a(g1
S'/home/perseus/Sem-9/Thesis/Data/CodeForces/8/Correct/A7.c'
p20
I0
tp21
a(g1
S'/home/perseus/Sem-9/Thesis/Data/CodeForces/8/Correct/A12.c'
p22
F0.0
tp23
a(g1
S'/home/perseus/Sem-9/Thesis/Data/CodeForces/8/Correct/A16.c'
p24
F0.0
tp25
a(g1
S'/home/perseus/Sem-9/Thesis/Data/CodeForces/8/Correct/A8.c'
p26
I0
tp27
a(g1
S'/home/perseus/Sem-9/Thesis/Data/CodeForces/8/Correct/A15.c'
p28
F0.0
tp29
a(g2
g4
F0.0
tp30
a(g2
g6
F0.0
tp31
a(g2
g8
F0.0
tp32
a(g2
g10
F0.0
tp33
a(g2
g12
F0.0
tp34
a(g2
g14
I0
tp35
a(g2
g16
F0.0
tp36
a(g2
g18
F0.0
tp37
a(g2
g20
I0
tp38
a(g2
g22
F0.0
tp39
a(g2
g24
F0.0
tp40
a(g2
g26
F0.0
tp41
a(g2
g28
F0.0
tp42
a(g4
g6
F0.0
tp43
a(g4
g8
F0.0
tp44
a(g4
g10
F0.0
tp45
a(g4
g12
F0.0
tp46
a(g4
g14
F0.32954545454545453
tp47
a(g4
g16
F0.0
tp48
a(g4
g18
F0.0
tp49
a(g4
g20
I0
tp50
a(g4
g22
F0.0
tp51
a(g4
g24
F0.0
tp52
a(g4
g26
F0.0
tp53
a(g4
g28
F0.0
tp54
a(g6
g8
F0.0
tp55
a(g6
g10
F0.0
tp56
a(g6
g12
F0.0
tp57
a(g6
g14
I0
tp58
a(g6
g16
F0.0
tp59
a(g6
g18
F0.0
tp60
a(g6
g20
I0
tp61
a(g6
g22
F0.0
tp62
a(g6
g24
F0.0
tp63
a(g6
g26
F0.0
tp64
a(g6
g28
F0.0
tp65
a(g8
g10
F0.0
tp66
a(g8
g12
F0.0
tp67
a(g8
g14
F0.3411764705882353
tp68
a(g8
g16
F0.0
tp69
a(g8
g18
F0.0
tp70
a(g8
g20
I0
tp71
a(g8
g22
F0.0
tp72
a(g8
g24
F0.0
tp73
a(g8
g26
F0.0
tp74
a(g8
g28
F0.0
tp75
a(g10
g12
I0
tp76
a(g10
g14
F0.0
tp77
a(g10
g16
F0.0
tp78
a(g10
g18
F0.0
tp79
a(g10
g20
I0
tp80
a(g10
g22
F0.0
tp81
a(g10
g24
F0.0
tp82
a(g10
g26
F0.0
tp83
a(g10
g28
F1.0
tp84
a(g12
g14
I0
tp85
a(g12
g16
F0.0
tp86
a(g12
g18
F0.0
tp87
a(g12
g20
I0
tp88
a(g12
g22
I0
tp89
a(g12
g24
F0.0
tp90
a(g12
g26
F0.0
tp91
a(g12
g28
I0
tp92
a(g14
g16
F0.0
tp93
a(g14
g18
I0
tp94
a(g14
g20
I0
tp95
a(g14
g22
F0.0
tp96
a(g14
g24
F0.0
tp97
a(g14
g26
I0
tp98
a(g14
g28
F0.0
tp99
a(g16
g18
F0.0
tp100
a(g16
g20
I0
tp101
a(g16
g22
F0.0
tp102
a(g16
g24
F0.0
tp103
a(g16
g26
F0.0
tp104
a(g16
g28
F0.0
tp105
a(g18
g20
I0
tp106
a(g18
g22
F0.0
tp107
a(g18
g24
F0.0
tp108
a(g18
g26
F0.0
tp109
a(g18
g28
F0.0
tp110
a(g20
g22
I0
tp111
a(g20
g24
I0
tp112
a(g20
g26
I0
tp113
a(g20
g28
I0
tp114
a(g22
g24
F0.0
tp115
a(g22
g26
F0.0
tp116
a(g22
g28
F0.0
tp117
a(g24
g26
F0.0
tp118
a(g24
g28
F0.0
tp119
a(g26
g28
F0.0
tp120
a.(lp0
(lp1
S'/home/perseus/Sem-9/Thesis/Data/CodeForces/8/Correct/A5.c'
p2
aS'/home/perseus/Sem-9/Thesis/Data/CodeForces/8/Correct/A15.c'
p3
aa(lp4
S'/home/perseus/Sem-9/Thesis/Data/CodeForces/8/Correct/A16.c'
p5
aa(lp6
S'/home/perseus/Sem-9/Thesis/Data/CodeForces/8/Correct/A4.c'
p7
aS'/home/perseus/Sem-9/Thesis/Data/CodeForces/8/Correct/A1.c'
p8
aS'/home/perseus/Sem-9/Thesis/Data/CodeForces/8/Correct/A2.c'
p9
aS'/home/perseus/Sem-9/Thesis/Data/CodeForces/8/Correct/A6.c'
p10
aa(lp11
S'/home/perseus/Sem-9/Thesis/Data/CodeForces/8/Correct/A12.c'
p12
aa(lp13
S'/home/perseus/Sem-9/Thesis/Data/CodeForces/8/Correct/A11.c'
p14
aa(lp15
S'/home/perseus/Sem-9/Thesis/Data/CodeForces/8/Correct/A8.c'
p16
aa(lp17
S'/home/perseus/Sem-9/Thesis/Data/CodeForces/8/Correct/A7.c'
p18
aa(lp19
S'/home/perseus/Sem-9/Thesis/Data/CodeForces/8/Correct/A10.c'
p20
aa(lp21
S'/home/perseus/Sem-9/Thesis/Data/CodeForces/8/Correct/A3.c'
p22
aa(lp23
S'/home/perseus/Sem-9/Thesis/Data/CodeForces/8/Correct/A13.c'
p24
aa(lp25
S'/home/perseus/Sem-9/Thesis/Data/CodeForces/8/Correct/A9.c'
p26
aa.(lp0
(S'/home/perseus/Sem-9/Thesis/Data/CodeForces/8/Incorrect/A19.c'
p1
F0.0
tp2
a(S'/home/perseus/Sem-9/Thesis/Data/CodeForces/8/Incorrect/A3.c'
p3
F0.0
tp4
a(S'/home/perseus/Sem-9/Thesis/Data/CodeForces/8/Incorrect/A37.c'
p5
F36.199095022624434
tp6
a(S'/home/perseus/Sem-9/Thesis/Data/CodeForces/8/Incorrect/A40.c'
p7
F0.0
tp8
a(S'/home/perseus/Sem-9/Thesis/Data/CodeForces/8/Incorrect/A6.c'
p9
F0.0
tp10
a(S'/home/perseus/Sem-9/Thesis/Data/CodeForces/8/Incorrect/A26.c'
p11
F0.0
tp12
a(S'/home/perseus/Sem-9/Thesis/Data/CodeForces/8/Incorrect/A13.c'
p13
I0
tp14
a(S'/home/perseus/Sem-9/Thesis/Data/CodeForces/8/Incorrect/A17.c'
p15
F0.0
tp16
a(S'/home/perseus/Sem-9/Thesis/Data/CodeForces/8/Incorrect/A36.c'
p17
F36.199095022624434
tp18
a(S'/home/perseus/Sem-9/Thesis/Data/CodeForces/8/Incorrect/A28.c'
p19
F100.0
tp20
a(S'/home/perseus/Sem-9/Thesis/Data/CodeForces/8/Incorrect/A24.c'
p21
F0.0
tp22
a(S'/home/perseus/Sem-9/Thesis/Data/CodeForces/8/Incorrect/A4.c'
p23
F0.0
tp24
a(S'/home/perseus/Sem-9/Thesis/Data/CodeForces/8/Incorrect/A29.c'
p25
F30.476190476190478
tp26
a(S'/home/perseus/Sem-9/Thesis/Data/CodeForces/8/Incorrect/A5.c'
p27
F0.0
tp28
a(S'/home/perseus/Sem-9/Thesis/Data/CodeForces/8/Incorrect/A22.c'
p29
F0.0
tp30
a(S'/home/perseus/Sem-9/Thesis/Data/CodeForces/8/Incorrect/A14.c'
p31
F0.0
tp32
a(S'/home/perseus/Sem-9/Thesis/Data/CodeForces/8/Incorrect/A34.c'
p33
F38.91402714932127
tp34
a(S'/home/perseus/Sem-9/Thesis/Data/CodeForces/8/Incorrect/A9.c'
p35
F0.0
tp36
a(S'/home/perseus/Sem-9/Thesis/Data/CodeForces/8/Incorrect/A2.c'
p37
F0.0
tp38
a(S'/home/perseus/Sem-9/Thesis/Data/CodeForces/8/Incorrect/A11.c'
p39
F0.0
tp40
a(S'/home/perseus/Sem-9/Thesis/Data/CodeForces/8/Incorrect/A25.c'
p41
I0
tp42
a(S'/home/perseus/Sem-9/Thesis/Data/CodeForces/8/Incorrect/A39.c'
p43
F0.0
tp44
a(S'/home/perseus/Sem-9/Thesis/Data/CodeForces/8/Incorrect/A10.c'
p45
F0.0
tp46
a(S'/home/perseus/Sem-9/Thesis/Data/CodeForces/8/Incorrect/A35.c'
p47
F38.91402714932127
tp48
a(S'/home/perseus/Sem-9/Thesis/Data/CodeForces/8/Incorrect/A31.c'
p49
F0.0
tp50
a(S'/home/perseus/Sem-9/Thesis/Data/CodeForces/8/Incorrect/A7.c'
p51
F0.0
tp52
a(S'/home/perseus/Sem-9/Thesis/Data/CodeForces/8/Incorrect/A12.c'
p53
F0.0
tp54
a(S'/home/perseus/Sem-9/Thesis/Data/CodeForces/8/Incorrect/A41.c'
p55
F0.0
tp56
a(S'/home/perseus/Sem-9/Thesis/Data/CodeForces/8/Incorrect/A38.c'
p57
F0.0
tp58
a(S'/home/perseus/Sem-9/Thesis/Data/CodeForces/8/Incorrect/A16.c'
p59
F0.0
tp60
a(S'/home/perseus/Sem-9/Thesis/Data/CodeForces/8/Incorrect/A32.c'
p61
F42.53393665158371
tp62
a(S'/home/perseus/Sem-9/Thesis/Data/CodeForces/8/Incorrect/A18.c'
p63
F91.84782608695652
tp64
a(S'/home/perseus/Sem-9/Thesis/Data/CodeForces/8/Incorrect/A23.c'
p65
F0.0
tp66
a(S'/home/perseus/Sem-9/Thesis/Data/CodeForces/8/Incorrect/A27.c'
p67
F0.0
tp68
a(S'/home/perseus/Sem-9/Thesis/Data/CodeForces/8/Incorrect/A33.c'
p69
I0
tp70
a(S'/home/perseus/Sem-9/Thesis/Data/CodeForces/8/Incorrect/A8.c'
p71
F0.0
tp72
a(S'/home/perseus/Sem-9/Thesis/Data/CodeForces/8/Incorrect/A21.c'
p73
F0.0
tp74
a(S'/home/perseus/Sem-9/Thesis/Data/CodeForces/8/Incorrect/A20.c'
p75
F0.0
tp76
a(S'/home/perseus/Sem-9/Thesis/Data/CodeForces/8/Incorrect/A30.c'
p77
F0.0
tp78
a.